	.file	"main.c"
	.text
.Ltext0:
	.file 0 "/home/aluno/Desktop/sound_meter-master_v02_2" "src/main.c"
	.globl	running
	.data
	.type	running, @object
	.size	running, 1
running:
	.byte	1
	.text
	.type	int_handler, @function
int_handler:
.LFB308:
	.file 1 "src/main.c"
	.loc 1 53 37
	.cfi_startproc
	endbr64
	pushq	%rbp
	.cfi_def_cfa_offset 16
	.cfi_offset 6, -16
	movq	%rsp, %rbp
	.cfi_def_cfa_register 6
	movl	%edi, -4(%rbp)
	.loc 1 54 10
	movb	$0, running(%rip)
	.loc 1 55 1
	nop
	popq	%rbp
	.cfi_def_cfa 7, 8
	ret
	.cfi_endproc
.LFE308:
	.size	int_handler, .-int_handler
	.section	.rodata
	.align 8
.LC0:
	.ascii	"Usage: %s [options] <source file_name>\noptions:\n\t--verbos"
	.ascii	"e\n\t-h, --help\n\t-v, --version\n\t-d, --device <device nam"
	.ascii	"e>\n\t-i, --input <file name>\n\t-o,"
	.string	" --output <file name>\n\t-f, --data_output_format <csv | json>\n\t-r, --sample_rate <rate>\n\t-a, --channels <channels>\n\t-n, --identification <name>\n\t-t, --duration <seconds>\n\t-c, --calibrate <seconds>\n\t-g, --config <file name>\n\t-b, --block_size <sample number>\n"
	.text
	.type	help, @function
help:
.LFB309:
	.loc 1 59 1
	.cfi_startproc
	endbr64
	pushq	%rbp
	.cfi_def_cfa_offset 16
	.cfi_offset 6, -16
	movq	%rsp, %rbp
	.cfi_def_cfa_register 6
	subq	$16, %rsp
	movq	%rdi, -8(%rbp)
	.loc 1 60 2
	movq	-8(%rbp), %rax
	movq	%rax, %rsi
	leaq	.LC0(%rip), %rax
	movq	%rax, %rdi
	movl	$0, %eax
	call	printf@PLT
	.loc 1 77 1
	nop
	leave
	.cfi_def_cfa 7, 8
	ret
	.cfi_endproc
.LFE309:
	.size	help, .-help
	.section	.rodata
	.align 8
.LC1:
	.string	"Sound meter v1.0 (Jul  7 2025)\nBased on MoSeMusic project by Guilherme Albano and David Meneses\nEzequiel Conde (ezeq@cc.isel.ipl.pt)"
	.text
	.type	about, @function
about:
.LFB310:
	.loc 1 80 1
	.cfi_startproc
	endbr64
	pushq	%rbp
	.cfi_def_cfa_offset 16
	.cfi_offset 6, -16
	movq	%rsp, %rbp
	.cfi_def_cfa_register 6
	.loc 1 81 2
	leaq	.LC1(%rip), %rax
	movq	%rax, %rdi
	call	puts@PLT
	.loc 1 84 1
	nop
	popq	%rbp
	.cfi_def_cfa 7, 8
	ret
	.cfi_endproc
.LFE310:
	.size	about, .-about
	.section	.rodata
.LC2:
	.string	"44100"
.LC3:
	.string	"48000"
	.align 8
.LC4:
	.string	"expected sample_rate [44100,48000]"
.LC5:
	.string	"Assertion failed: %s\n"
.LC6:
	.string	"sound_meter"
.LC7:
	.string	"512"
.LC8:
	.string	"1024"
.LC9:
	.string	"2048"
	.align 8
.LC10:
	.string	"expected block_size [512, 1024, 2028]"
.LC11:
	.string	"Error in option -%c argument\n"
.LC12:
	.string	":hvd:i:o:f:r:a:n:t:c:g:b:"
.LC13:
	.string	"SOUND_METER_CONFIG_FILENAME"
.LC14:
	.string	"sound_meter_config.json"
.LC15:
	.string	"Configuration filename: %s\n"
.LC16:
	.string	"SOUND_METER_CONFIG_FILEPATH"
.LC17:
	.string	"./"
.LC18:
	.string	"Configuration pathname: %s\n"
	.align 8
.LC19:
	.string	"\n\tOutput file: %s\n\tRun duration: %d seconds\n\n"
.LC21:
	.string	"\nCalibrating for %d seconds\n"
.LC22:
	.string	"src/main.c"
	.align 8
.LC23:
	.string	"lenght_read <= sbuffer_write_size(ring_calibration)"
.LC24:
	.string	"-"
.LC25:
	.string	"%d\n"
.LC26:
	.string	"\nCalibration reference: %.1f\n"
.LC27:
	.string	"Raw LAE: %.1f\n"
.LC28:
	.string	"Calibration delta: %.1f\n"
	.align 8
.LC29:
	.string	"\nStarting sound level measuring..."
.LC30:
	.string	"a"
.LC31:
	.string	"b"
.LC32:
	.string	"c"
.LC33:
	.string	"d"
	.align 8
.LC34:
	.string	"LAeq, LAFmin, LAE, LAFmax, LApeak"
	.align 8
.LC35:
	.string	"lenght_read <= sbuffer_write_size(third_octave_data[i].ring)"
	.align 8
.LC36:
	.string	"lenght_read <= sbuffer_write_size(ring_z)"
	.align 8
.LC37:
	.string	"lenght_read <= sbuffer_write_size(ring_a)"
	.align 8
.LC38:
	.string	"lenght_read <= sbuffer_write_size(ring_c)"
	.align 8
.LC39:
	.string	"lenght_read <= sbuffer_write_size(ring_afast)"
	.align 8
.LC40:
	.string	"lenght_read <= sbuffer_write_size(ring_aslow)"
.LC41:
	.string	"\r%6.1f%6.1f%6.1f%6.1f%6.1f\n"
	.align 8
.LC42:
	.string	"ERROR : could not start recording (in_out.c : 79)"
.LC43:
	.string	"\nTotal time: %d seconds\n"
	.align 8
.LC44:
	.string	"Saving configuration in ./sound_meter_config.json"
.LC45:
	.string	"./sound_meter_config.json"
	.text
	.globl	main
	.type	main, @function
main:
.LFB311:
	.loc 1 87 1
	.cfi_startproc
	endbr64
	pushq	%rbp
	.cfi_def_cfa_offset 16
	.cfi_offset 6, -16
	movq	%rsp, %rbp
	.cfi_def_cfa_register 6
	pushq	%rbx
	subq	$1192, %rsp
	.cfi_offset 3, -24
	movl	%edi, -1172(%rbp)
	movq	%rsi, -1184(%rbp)
	.loc 1 87 1
	movq	%fs:40, %rax
	movq	%rax, -24(%rbp)
	xorl	%eax, %eax
	.loc 1 108 6
	movl	$0, -1160(%rbp)
	.loc 1 110 8
	movq	$0, -1104(%rbp)
	.loc 1 111 8
	movq	$0, -1096(%rbp)
	.loc 1 112 8
	movq	$0, -1088(%rbp)
	.loc 1 113 8
	movq	$0, -1080(%rbp)
	.loc 1 114 8
	movq	$0, -1072(%rbp)
	.loc 1 115 8
	movq	$0, -1064(%rbp)
	.loc 1 116 8
	movq	$0, -1056(%rbp)
	.loc 1 117 8
	movq	$0, -1048(%rbp)
	.loc 1 118 8
	movq	$0, -1040(%rbp)
	.loc 1 119 8
	movq	$0, -1032(%rbp)
	.loc 1 120 6
	movl	$0, -1156(%rbp)
	.loc 1 122 2
	leaq	int_handler(%rip), %rax
	movq	%rax, %rsi
	movl	$2, %edi
	call	signal@PLT
	.loc 1 124 8
	jmp	.L5
.L27:
	.loc 1 126 3
	cmpl	$118, -1120(%rbp)
	ja	.L5
	movl	-1120(%rbp), %eax
	leaq	0(,%rax,4), %rdx
	leaq	.L8(%rip), %rax
	movl	(%rdx,%rax), %eax
	cltq
	leaq	.L8(%rip), %rdx
	addq	%rdx, %rax
	notrack jmp	*%rax
	.section	.rodata
	.align 4
	.align 4
.L8:
	.long	.L5-.L8
	.long	.L5-.L8
	.long	.L5-.L8
	.long	.L5-.L8
	.long	.L5-.L8
	.long	.L5-.L8
	.long	.L5-.L8
	.long	.L5-.L8
	.long	.L5-.L8
	.long	.L5-.L8
	.long	.L5-.L8
	.long	.L5-.L8
	.long	.L5-.L8
	.long	.L5-.L8
	.long	.L5-.L8
	.long	.L5-.L8
	.long	.L5-.L8
	.long	.L5-.L8
	.long	.L5-.L8
	.long	.L5-.L8
	.long	.L5-.L8
	.long	.L5-.L8
	.long	.L5-.L8
	.long	.L5-.L8
	.long	.L5-.L8
	.long	.L5-.L8
	.long	.L5-.L8
	.long	.L5-.L8
	.long	.L5-.L8
	.long	.L5-.L8
	.long	.L5-.L8
	.long	.L5-.L8
	.long	.L5-.L8
	.long	.L5-.L8
	.long	.L5-.L8
	.long	.L5-.L8
	.long	.L5-.L8
	.long	.L5-.L8
	.long	.L5-.L8
	.long	.L5-.L8
	.long	.L5-.L8
	.long	.L5-.L8
	.long	.L5-.L8
	.long	.L5-.L8
	.long	.L5-.L8
	.long	.L5-.L8
	.long	.L5-.L8
	.long	.L5-.L8
	.long	.L5-.L8
	.long	.L5-.L8
	.long	.L5-.L8
	.long	.L5-.L8
	.long	.L5-.L8
	.long	.L5-.L8
	.long	.L5-.L8
	.long	.L5-.L8
	.long	.L5-.L8
	.long	.L5-.L8
	.long	.L22-.L8
	.long	.L5-.L8
	.long	.L5-.L8
	.long	.L5-.L8
	.long	.L5-.L8
	.long	.L21-.L8
	.long	.L5-.L8
	.long	.L5-.L8
	.long	.L5-.L8
	.long	.L5-.L8
	.long	.L5-.L8
	.long	.L5-.L8
	.long	.L5-.L8
	.long	.L5-.L8
	.long	.L5-.L8
	.long	.L5-.L8
	.long	.L5-.L8
	.long	.L5-.L8
	.long	.L5-.L8
	.long	.L5-.L8
	.long	.L5-.L8
	.long	.L5-.L8
	.long	.L5-.L8
	.long	.L5-.L8
	.long	.L5-.L8
	.long	.L5-.L8
	.long	.L5-.L8
	.long	.L5-.L8
	.long	.L5-.L8
	.long	.L5-.L8
	.long	.L5-.L8
	.long	.L5-.L8
	.long	.L5-.L8
	.long	.L5-.L8
	.long	.L5-.L8
	.long	.L5-.L8
	.long	.L5-.L8
	.long	.L5-.L8
	.long	.L5-.L8
	.long	.L20-.L8
	.long	.L19-.L8
	.long	.L18-.L8
	.long	.L17-.L8
	.long	.L5-.L8
	.long	.L16-.L8
	.long	.L15-.L8
	.long	.L14-.L8
	.long	.L13-.L8
	.long	.L5-.L8
	.long	.L5-.L8
	.long	.L5-.L8
	.long	.L5-.L8
	.long	.L12-.L8
	.long	.L11-.L8
	.long	.L5-.L8
	.long	.L5-.L8
	.long	.L10-.L8
	.long	.L5-.L8
	.long	.L9-.L8
	.long	.L5-.L8
	.long	.L7-.L8
	.text
.L14:
	.loc 1 130 4
	movq	-1184(%rbp), %rax
	movq	(%rax), %rax
	movq	%rax, %rdi
	call	help
	.loc 1 131 11
	movl	$0, %eax
	jmp	.L91
.L7:
	.loc 1 133 4
	movl	$0, %eax
	call	about
	.loc 1 134 4
	jmp	.L5
.L17:
	.loc 1 136 27
	movq	optarg(%rip), %rax
	movq	%rax, -1104(%rbp)
	.loc 1 137 4
	jmp	.L5
.L13:
	.loc 1 139 26
	movq	optarg(%rip), %rax
	movq	%rax, -1096(%rbp)
	.loc 1 140 4
	jmp	.L5
.L11:
	.loc 1 142 27
	movq	optarg(%rip), %rax
	movq	%rax, -1088(%rbp)
	.loc 1 143 4
	jmp	.L5
.L16:
	.loc 1 145 30
	movq	optarg(%rip), %rax
	movq	%rax, -1080(%rbp)
	.loc 1 146 4
	jmp	.L5
.L15:
	.loc 1 148 27
	movq	optarg(%rip), %rax
	movq	%rax, -1040(%rbp)
	.loc 1 149 4
	jmp	.L5
.L10:
	.loc 1 151 23
	movq	optarg(%rip), %rax
	movq	%rax, -1072(%rbp)
	.loc 1 152 15
	movq	-1032(%rbp), %rax
	leaq	.LC2(%rip), %rdx
	movq	%rdx, %rsi
	movq	%rax, %rdi
	call	strcmp@PLT
	.loc 1 152 12 discriminator 1
	testl	%eax, %eax
	je	.L93
	.loc 1 152 57 discriminator 1
	movq	-1032(%rbp), %rax
	leaq	.LC3(%rip), %rdx
	movq	%rdx, %rsi
	movq	%rax, %rdi
	call	strcmp@PLT
	.loc 1 152 13 discriminator 1
	testl	%eax, %eax
	je	.L93
	.loc 1 152 100 discriminator 2
	movq	stderr(%rip), %rax
	leaq	.LC4(%rip), %rdx
	leaq	.LC5(%rip), %rcx
	movq	%rcx, %rsi
	movq	%rax, %rdi
	movl	$0, %eax
	call	fprintf@PLT
	.loc 1 152 70 discriminator 1
	movl	$10, %edi
	call	putchar@PLT
	.loc 1 152 84 discriminator 2
	leaq	.LC6(%rip), %rax
	movq	%rax, %rdi
	call	help
	.loc 1 152 105 discriminator 3
	movl	$1, %edi
	call	exit@PLT
.L20:
	.loc 1 156 20
	movq	optarg(%rip), %rax
	movq	%rax, -1064(%rbp)
	.loc 1 157 4
	jmp	.L5
.L12:
	.loc 1 159 26
	movq	optarg(%rip), %rax
	movq	%rax, -1056(%rbp)
	.loc 1 160 4
	jmp	.L5
.L9:
	.loc 1 162 19
	movq	optarg(%rip), %rax
	movq	%rax, %rdi
	call	atoi@PLT
	movl	%eax, -1156(%rbp)
	.loc 1 163 4
	jmp	.L5
.L18:
	.loc 1 165 28
	movq	optarg(%rip), %rax
	movq	%rax, -1048(%rbp)
	.loc 1 166 4
	jmp	.L5
.L19:
	.loc 1 168 22
	movq	optarg(%rip), %rax
	movq	%rax, -1032(%rbp)
	.loc 1 169 15
	movq	-1032(%rbp), %rax
	leaq	.LC7(%rip), %rdx
	movq	%rdx, %rsi
	movq	%rax, %rdi
	call	strcmp@PLT
	.loc 1 169 12 discriminator 1
	testl	%eax, %eax
	je	.L94
	.loc 1 169 55 discriminator 1
	movq	-1032(%rbp), %rax
	leaq	.LC8(%rip), %rdx
	movq	%rdx, %rsi
	movq	%rax, %rdi
	call	strcmp@PLT
	.loc 1 169 52 discriminator 1
	testl	%eax, %eax
	je	.L94
	.loc 1 169 96 discriminator 2
	movq	-1032(%rbp), %rax
	leaq	.LC9(%rip), %rdx
	movq	%rdx, %rsi
	movq	%rax, %rdi
	call	strcmp@PLT
	.loc 1 169 13 discriminator 1
	testl	%eax, %eax
	je	.L94
	.loc 1 169 138 discriminator 3
	movq	stderr(%rip), %rax
	leaq	.LC10(%rip), %rdx
	leaq	.LC5(%rip), %rcx
	movq	%rcx, %rsi
	movq	%rax, %rdi
	movl	$0, %eax
	call	fprintf@PLT
	.loc 1 169 73 discriminator 1
	movl	$10, %edi
	call	putchar@PLT
	.loc 1 169 87 discriminator 2
	leaq	.LC6(%rip), %rax
	movq	%rax, %rdi
	call	help
	.loc 1 169 108 discriminator 3
	movl	$1, %edi
	call	exit@PLT
.L22:
	.loc 1 173 4
	movl	optopt(%rip), %edx
	movq	stderr(%rip), %rax
	leaq	.LC11(%rip), %rcx
	movq	%rcx, %rsi
	movq	%rax, %rdi
	movl	$0, %eax
	call	fprintf@PLT
	.loc 1 174 21
	movl	$1, -1160(%rbp)
	.loc 1 175 4
	jmp	.L5
.L21:
	.loc 1 177 21
	movl	$1, -1160(%rbp)
	.loc 1 178 4
	jmp	.L5
.L93:
	.loc 1 154 4
	nop
	jmp	.L5
.L94:
	.loc 1 171 4
	nop
.L5:
	.loc 1 124 24
	leaq	-1164(%rbp), %rdx
	movq	-1184(%rbp), %rsi
	movl	-1172(%rbp), %eax
	movq	%rdx, %r8
	leaq	long_options.2(%rip), %rdx
	movq	%rdx, %rcx
	leaq	.LC12(%rip), %rdx
	movl	%eax, %edi
	call	getopt_long@PLT
	movl	%eax, -1120(%rbp)
	.loc 1 125 34
	cmpl	$-1, -1120(%rbp)
	jne	.L27
	.loc 1 181 5
	cmpl	$0, -1160(%rbp)
	je	.L28
	.loc 1 182 3
	movq	-1184(%rbp), %rax
	movq	(%rax), %rax
	movq	%rax, %rdi
	call	help
	.loc 1 183 3
	movl	$1, %edi
	call	exit@PLT
.L28:
	.loc 1 189 14
	movq	-1040(%rbp), %rax
	movq	%rax, -1024(%rbp)
	.loc 1 190 5
	cmpq	$0, -1024(%rbp)
	jne	.L29
	.loc 1 191 21
	leaq	.LC13(%rip), %rax
	movq	%rax, %rdi
	call	getenv@PLT
	movq	%rax, -1024(%rbp)
	.loc 1 192 6
	cmpq	$0, -1024(%rbp)
	jne	.L29
	.loc 1 193 20
	leaq	.LC14(%rip), %rax
	movq	%rax, -1024(%rbp)
.L29:
	.loc 1 195 6
	movl	verbose_flag.1(%rip), %eax
	.loc 1 195 5
	testl	%eax, %eax
	je	.L30
	.loc 1 196 3
	movq	-1024(%rbp), %rax
	movq	%rax, %rsi
	leaq	.LC15(%rip), %rax
	movq	%rax, %rdi
	movl	$0, %eax
	call	printf@PLT
.L30:
	.loc 1 214 7
	movq	-1024(%rbp), %rax
	movzbl	(%rax), %eax
	movb	%al, -1166(%rbp)
	.loc 1 215 5
	cmpb	$47, -1166(%rbp)
	je	.L31
	.loc 1 215 26 discriminator 1
	cmpb	$46, -1166(%rbp)
	je	.L31
.LBB2:
	.loc 1 216 22
	leaq	.LC16(%rip), %rax
	movq	%rax, %rdi
	call	getenv@PLT
	movq	%rax, -1008(%rbp)
	.loc 1 217 6
	cmpq	$0, -1008(%rbp)
	jne	.L32
	.loc 1 218 9
	leaq	.LC17(%rip), %rax
	movq	%rax, -1008(%rbp)
.L32:
	.loc 1 219 27
	movq	-1008(%rbp), %rax
	movq	%rax, %rdi
	call	strlen@PLT
	movq	%rax, %rbx
	.loc 1 219 42 discriminator 1
	movq	-1024(%rbp), %rax
	movq	%rax, %rdi
	call	strlen@PLT
	.loc 1 219 40 discriminator 2
	addq	%rbx, %rax
	.loc 1 219 20 discriminator 2
	addq	$1, %rax
	movq	%rax, %rdi
	call	malloc@PLT
	movq	%rax, -968(%rbp)
	.loc 1 220 3
	movq	-1008(%rbp), %rdx
	movq	-968(%rbp), %rax
	movq	%rdx, %rsi
	movq	%rax, %rdi
	call	strcpy@PLT
	.loc 1 221 3
	movq	-1024(%rbp), %rdx
	movq	-968(%rbp), %rax
	movq	%rdx, %rsi
	movq	%rax, %rdi
	call	strcat@PLT
	.loc 1 222 19
	movq	-968(%rbp), %rax
	movq	%rax, -1016(%rbp)
.LBE2:
	.loc 1 215 50
	jmp	.L33
.L31:
	.loc 1 225 21
	movq	-1024(%rbp), %rax
	movq	%rax, %rdi
	call	strdup@PLT
	movq	%rax, -1016(%rbp)
.L33:
	.loc 1 227 6
	movl	verbose_flag.1(%rip), %eax
	.loc 1 227 5
	testl	%eax, %eax
	je	.L34
	.loc 1 228 3
	movq	-1016(%rbp), %rax
	movq	%rax, %rsi
	leaq	.LC18(%rip), %rax
	movq	%rax, %rdi
	movl	$0, %eax
	call	printf@PLT
.L34:
	.loc 1 230 18
	movq	-1016(%rbp), %rax
	movq	%rax, %rdi
	call	config_load@PLT
	.loc 1 230 16 discriminator 1
	movq	%rax, config_struct(%rip)
	.loc 1 232 2
	movq	-1016(%rbp), %rax
	movq	%rax, %rdi
	call	free@PLT
	.loc 1 236 5
	cmpq	$0, -1104(%rbp)
	je	.L35
	.loc 1 237 16
	movq	config_struct(%rip), %rax
	.loc 1 237 31
	movq	-1104(%rbp), %rdx
	movq	%rdx, 8(%rax)
.L35:
	.loc 1 239 5
	cmpq	$0, -1096(%rbp)
	je	.L36
	.loc 1 240 16
	movq	config_struct(%rip), %rax
	.loc 1 240 29
	movq	-1096(%rbp), %rdx
	movq	%rdx, 16(%rax)
.L36:
	.loc 1 242 5
	cmpq	$0, -1080(%rbp)
	je	.L37
	.loc 1 243 16
	movq	config_struct(%rip), %rax
	.loc 1 243 37
	movq	-1080(%rbp), %rdx
	movq	%rdx, 48(%rax)
.L37:
	.loc 1 245 5
	cmpq	$0, -1072(%rbp)
	je	.L38
	.loc 1 246 32
	movq	-1072(%rbp), %rax
	movq	%rax, %rdi
	call	atoi@PLT
	movl	%eax, %edx
	.loc 1 246 16 discriminator 1
	movq	config_struct(%rip), %rax
	.loc 1 246 30 discriminator 1
	movl	%edx, 56(%rax)
.L38:
	.loc 1 248 5
	cmpq	$0, -1064(%rbp)
	je	.L39
	.loc 1 249 29
	movq	-1064(%rbp), %rax
	movq	%rax, %rdi
	call	atoi@PLT
	movl	%eax, %edx
	.loc 1 249 16 discriminator 1
	movq	config_struct(%rip), %rax
	.loc 1 249 27 discriminator 1
	movl	%edx, 60(%rax)
.L39:
	.loc 1 251 5
	cmpq	$0, -1056(%rbp)
	je	.L40
	.loc 1 252 16
	movq	config_struct(%rip), %rax
	.loc 1 252 33
	movq	-1056(%rbp), %rdx
	movq	%rdx, (%rax)
.L40:
	.loc 1 254 5
	cmpl	$0, -1156(%rbp)
	je	.L41
	.loc 1 255 16
	movq	config_struct(%rip), %rax
	.loc 1 255 31
	movl	-1156(%rbp), %edx
	movl	%edx, 84(%rax)
.L41:
	.loc 1 257 5
	cmpq	$0, -1048(%rbp)
	je	.L42
	.loc 1 258 37
	movq	-1048(%rbp), %rax
	movq	%rax, %rdi
	call	atoi@PLT
	movl	%eax, %edx
	.loc 1 258 16 discriminator 1
	movq	config_struct(%rip), %rax
	.loc 1 258 35 discriminator 1
	movl	%edx, 116(%rax)
.L42:
	.loc 1 260 5
	cmpq	$0, -1032(%rbp)
	je	.L43
	.loc 1 261 31
	movq	-1032(%rbp), %rax
	movq	%rax, %rdi
	call	atoi@PLT
	movl	%eax, %edx
	.loc 1 261 16 discriminator 1
	movq	config_struct(%rip), %rax
	.loc 1 261 29 discriminator 1
	movl	%edx, 68(%rax)
.L43:
	.loc 1 263 2
	movq	-1096(%rbp), %rdx
	movq	-1088(%rbp), %rax
	movq	%rdx, %rsi
	movq	%rax, %rdi
	call	output_set_filename@PLT
	.loc 1 265 45
	movq	config_struct(%rip), %rax
	movl	72(%rax), %edx
	.loc 1 265 79
	movq	config_struct(%rip), %rax
	movl	56(%rax), %eax
	.loc 1 265 64
	imull	%eax, %edx
	.loc 1 265 15
	movq	config_struct(%rip), %rax
	.loc 1 265 93
	movl	%edx, %edx
	imulq	$274877907, %rdx, %rdx
	shrq	$32, %rdx
	shrl	$6, %edx
	.loc 1 265 30
	movl	%edx, 76(%rax)
	.loc 1 267 6
	movl	verbose_flag.1(%rip), %eax
	.loc 1 267 5
	testl	%eax, %eax
	je	.L44
	.loc 1 268 3
	movl	$0, %eax
	call	config_print@PLT
	.loc 1 269 3
	movl	$0, %eax
	call	output_get_data_filepath@PLT
	movq	%rax, %rcx
	.loc 1 269 3 is_stmt 0 discriminator 1
	movl	-1156(%rbp), %eax
	movl	%eax, %edx
	movq	%rcx, %rsi
	leaq	.LC19(%rip), %rax
	movq	%rax, %rdi
	movl	$0, %eax
	call	printf@PLT
.L44:
	.loc 1 279 7 is_stmt 1
	movq	config_struct(%rip), %rax
	movq	%rax, %rdi
	call	input_device_open@PLT
	.loc 1 279 6 discriminator 1
	xorl	$1, %eax
	.loc 1 279 5 discriminator 1
	testb	%al, %al
	je	.L45
	.loc 1 280 2
	movl	$1, %edi
	call	exit@PLT
.L45:
	.loc 1 282 29
	movl	$0, %eax
	call	timeweight_create@PLT
	movq	%rax, -960(%rbp)
	.loc 1 283 29
	movl	$0, %eax
	call	timeweight_create@PLT
	movq	%rax, -952(%rbp)
	.loc 1 284 21
	movl	$3, %edi
	call	aweighting_create@PLT
	movq	%rax, -944(%rbp)
	.loc 1 285 21
	movl	$2, %edi
	call	cweighting_create@PLT
	movq	%rax, -936(%rbp)
	.loc 1 287 41
	movq	config_struct(%rip), %rax
	movl	60(%rax), %edx
	.loc 1 287 67
	movq	config_struct(%rip), %rax
	movl	68(%rax), %eax
	.loc 1 287 52
	imull	%edx, %eax
	movl	%eax, %eax
	.loc 1 287 21
	salq	$2, %rax
	movq	%rax, %rdi
	call	malloc@PLT
	movq	%rax, -928(%rbp)
	.loc 1 290 49
	movq	config_struct(%rip), %rax
	movl	76(%rax), %edx
	.loc 1 290 79
	movq	config_struct(%rip), %rax
	movl	68(%rax), %eax
	.loc 1 290 64
	addl	%edx, %eax
	.loc 1 290 92
	leal	-1(%rax), %ecx
	.loc 1 291 24
	movq	config_struct(%rip), %rax
	movl	68(%rax), %ebx
	.loc 1 291 9
	movl	%ecx, %eax
	movl	$0, %edx
	divl	%ebx
	.loc 1 291 38
	leal	1(%rax), %edx
	.loc 1 292 24
	movq	config_struct(%rip), %rax
	movl	68(%rax), %eax
	.loc 1 290 11
	imull	%edx, %eax
	movl	%eax, -1116(%rbp)
.LBB3:
	.loc 1 297 11
	movl	$0, -1152(%rbp)
	.loc 1 297 2
	jmp	.L46
.L47:
	.loc 1 298 33
	movl	-1152(%rbp), %eax
	movl	%eax, %edi
	call	third_octave_create@PLT
	movq	%rax, %rcx
	.loc 1 298 31 discriminator 1
	movl	-1152(%rbp), %eax
	movslq	%eax, %rdx
	movq	%rdx, %rax
	addq	%rax, %rax
	addq	%rdx, %rax
	salq	$3, %rax
	leaq	-16(%rax), %rax
	addq	%rbp, %rax
	subq	$736, %rax
	movq	%rcx, (%rax)
	.loc 1 299 33
	movl	$0, %eax
	call	levels_create@PLT
	movq	%rax, %rcx
	.loc 1 299 31 discriminator 1
	movl	-1152(%rbp), %eax
	movslq	%eax, %rdx
	movq	%rdx, %rax
	addq	%rax, %rax
	addq	%rdx, %rax
	salq	$3, %rax
	leaq	-16(%rax), %rax
	addq	%rbp, %rax
	subq	$728, %rax
	movq	%rcx, (%rax)
	.loc 1 300 31
	movl	-1116(%rbp), %eax
	movl	%eax, %edi
	call	sbuffer_create@PLT
	movq	%rax, %rcx
	.loc 1 300 29 discriminator 1
	movl	-1152(%rbp), %eax
	movslq	%eax, %rdx
	movq	%rdx, %rax
	addq	%rax, %rax
	addq	%rdx, %rax
	salq	$3, %rax
	leaq	-16(%rax), %rax
	addq	%rbp, %rax
	subq	$720, %rax
	movq	%rcx, (%rax)
	.loc 1 297 81 discriminator 3
	addl	$1, -1152(%rbp)
.L46:
	.loc 1 297 20 discriminator 1
	movl	-1152(%rbp), %eax
	cmpl	$29, %eax
	jbe	.L47
.LBE3:
	.loc 1 303 27
	movl	-1116(%rbp), %eax
	movl	%eax, %edi
	call	sbuffer_create@PLT
	movq	%rax, -920(%rbp)
	.loc 1 304 27
	movl	-1116(%rbp), %eax
	movl	%eax, %edi
	call	sbuffer_create@PLT
	movq	%rax, -912(%rbp)
	.loc 1 305 27
	movl	-1116(%rbp), %eax
	movl	%eax, %edi
	call	sbuffer_create@PLT
	movq	%rax, -904(%rbp)
	.loc 1 306 31
	movl	-1116(%rbp), %eax
	movl	%eax, %edi
	call	sbuffer_create@PLT
	movq	%rax, -896(%rbp)
	.loc 1 307 31
	movl	-1116(%rbp), %eax
	movl	%eax, %edi
	call	sbuffer_create@PLT
	movq	%rax, -888(%rbp)
	.loc 1 309 21
	movl	$0, %eax
	call	levels_create@PLT
	movq	%rax, -880(%rbp)
	.loc 1 310 21
	movl	$0, %eax
	call	levels_create@PLT
	movq	%rax, -872(%rbp)
	.loc 1 311 21
	movl	$0, %eax
	call	levels_create@PLT
	movq	%rax, -864(%rbp)
	.loc 1 312 25
	movl	$0, %eax
	call	levels_create@PLT
	movq	%rax, -856(%rbp)
	.loc 1 313 25
	movl	$0, %eax
	call	levels_create@PLT
	movq	%rax, -848(%rbp)
	.loc 1 315 26
	movl	$0, %eax
	call	levels_create@PLT
	movq	%rax, -840(%rbp)
	.loc 1 321 19
	movq	config_struct(%rip), %rax
	movl	116(%rax), %eax
	.loc 1 321 5
	testl	%eax, %eax
	je	.L48
.LBB4:
	.loc 1 324 12
	movl	$0, -1148(%rbp)
	.loc 1 325 49
	movq	config_struct(%rip), %rax
	movl	116(%rax), %eax
	.loc 1 325 73
	imull	$1000, %eax, %eax
	.loc 1 325 12
	addl	$2000, %eax
	movl	%eax, -1112(%rbp)
	.loc 1 326 9
	pxor	%xmm0, %xmm0
	movss	%xmm0, -1144(%rbp)
	.loc 1 327 12
	movl	$0, -1140(%rbp)
	.loc 1 328 56
	movq	config_struct(%rip), %rax
	.loc 1 328 3
	movl	116(%rax), %eax
	movl	%eax, %esi
	leaq	.LC21(%rip), %rax
	movq	%rax, %rdi
	movl	$0, %eax
	call	printf@PLT
	.loc 1 330 38
	movl	-1116(%rbp), %eax
	movl	%eax, %edi
	call	sbuffer_create@PLT
	movq	%rax, -832(%rbp)
	.loc 1 332 9
	jmp	.L53
.L56:
.LBB5:
	.loc 1 333 67
	movq	config_struct(%rip), %rax
	movl	68(%rax), %eax
	.loc 1 333 25
	movl	%eax, %edx
	movq	-928(%rbp), %rax
	movq	%rdx, %rsi
	movq	%rax, %rdi
	call	input_device_read@PLT
	movq	%rax, -824(%rbp)
	.loc 1 334 7
	cmpq	$0, -824(%rbp)
	je	.L95
	.loc 1 337 36
	movq	-832(%rbp), %rax
	movq	%rax, %rdi
	call	sbuffer_write_ptr@PLT
	movq	%rax, -816(%rbp)
	.loc 1 338 18
	movq	-832(%rbp), %rax
	movq	%rax, %rdi
	call	sbuffer_write_size@PLT
	.loc 1 338 18 is_stmt 0 discriminator 1
	movl	%eax, %eax
	.loc 1 338 35 is_stmt 1 discriminator 1
	cmpq	-824(%rbp), %rax
	jnb	.L52
	.loc 1 338 12 discriminator 1
	leaq	__PRETTY_FUNCTION__.0(%rip), %rax
	movq	%rax, %rcx
	movl	$338, %edx
	leaq	.LC22(%rip), %rax
	movq	%rax, %rsi
	leaq	.LC23(%rip), %rax
	movq	%rax, %rdi
	call	__assert_fail@PLT
.L52:
	.loc 1 340 4
	movq	-824(%rbp), %rax
	movl	%eax, %ecx
	movq	-816(%rbp), %rdx
	movq	-928(%rbp), %rsi
	movq	-944(%rbp), %rax
	movq	%rax, %rdi
	call	aweighting_filtering@PLT
	.loc 1 341 4
	movq	-824(%rbp), %rax
	movl	%eax, %edx
	movq	-816(%rbp), %rcx
	movq	-816(%rbp), %rax
	movq	%rcx, %rsi
	movq	%rax, %rdi
	call	process_block_square@PLT
	.loc 1 342 4
	movq	-824(%rbp), %rax
	movl	%eax, %ecx
	movq	-816(%rbp), %rdx
	movq	-816(%rbp), %rsi
	movq	-960(%rbp), %rax
	movq	%rax, %rdi
	call	timeweight_filtering@PLT
	.loc 1 343 4
	movq	-824(%rbp), %rax
	movl	%eax, %edx
	movq	-832(%rbp), %rax
	movl	%edx, %esi
	movq	%rax, %rdi
	call	sbuffer_write_produces@PLT
	.loc 1 345 8
	movq	-832(%rbp), %rax
	movq	%rax, %rdi
	call	sbuffer_size@PLT
	movl	%eax, %edx
	.loc 1 345 55 discriminator 1
	movq	config_struct(%rip), %rax
	movl	76(%rax), %eax
	.loc 1 345 7 discriminator 1
	cmpl	%eax, %edx
	jb	.L53
	.loc 1 346 5
	movq	config_struct(%rip), %rdx
	movq	-832(%rbp), %rcx
	movq	-856(%rbp), %rax
	movq	%rcx, %rsi
	movq	%rax, %rdi
	call	process_segment_levels@PLT
	.loc 1 347 8
	cmpl	$1999, -1148(%rbp)
	ja	.L54
	.loc 1 348 10
	movl	verbose_flag.1(%rip), %eax
	.loc 1 348 9
	testl	%eax, %eax
	je	.L55
	.loc 1 349 7
	leaq	.LC24(%rip), %rax
	movq	%rax, %rdi
	call	puts@PLT
	jmp	.L55
.L54:
	.loc 1 352 33
	movq	-856(%rbp), %rax
	movq	40(%rax), %rax
	.loc 1 352 38
	movss	(%rax), %xmm0
	.loc 1 352 18
	movss	-1144(%rbp), %xmm1
	addss	%xmm1, %xmm0
	movss	%xmm0, -1144(%rbp)
	.loc 1 353 15
	addl	$1, -1140(%rbp)
	.loc 1 354 10
	movl	verbose_flag.1(%rip), %eax
	.loc 1 354 9
	testl	%eax, %eax
	je	.L55
	.loc 1 355 44
	movl	-1112(%rbp), %eax
	subl	-1148(%rbp), %eax
	.loc 1 355 7
	movl	%eax, %eax
	imulq	$274877907, %rax, %rax
	shrq	$32, %rax
	shrl	$6, %eax
	movl	%eax, %esi
	leaq	.LC25(%rip), %rax
	movq	%rax, %rdi
	movl	$0, %eax
	call	printf@PLT
.L55:
	.loc 1 357 34
	movq	-856(%rbp), %rax
	movl	$0, (%rax)
	.loc 1 358 30
	movq	config_struct(%rip), %rax
	movl	72(%rax), %eax
	.loc 1 358 14
	addl	%eax, -1148(%rbp)
.L53:
.LBE5:
	.loc 1 332 19
	movl	-1148(%rbp), %eax
	cmpl	-1112(%rbp), %eax
	jb	.L56
	jmp	.L51
.L95:
.LBB6:
	.loc 1 335 5
	nop
.L51:
.LBE6:
	.loc 1 361 16
	movq	config_struct(%rip), %rax
	.loc 1 361 35
	movl	$0, 116(%rax)
	.loc 1 362 51
	movq	config_struct(%rip), %rax
	movss	120(%rax), %xmm1
	.loc 1 363 16
	movl	-1140(%rbp), %eax
	testq	%rax, %rax
	js	.L57
	pxor	%xmm0, %xmm0
	cvtsi2ssq	%rax, %xmm0
	jmp	.L58
.L57:
	movq	%rax, %rdx
	shrq	%rdx
	andl	$1, %eax
	orq	%rax, %rdx
	pxor	%xmm0, %xmm0
	cvtsi2ssq	%rdx, %xmm0
	addss	%xmm0, %xmm0
.L58:
	movss	-1144(%rbp), %xmm2
	divss	%xmm0, %xmm2
	.loc 1 362 16
	movq	config_struct(%rip), %rax
	.loc 1 362 75
	subss	%xmm2, %xmm1
	movaps	%xmm1, %xmm0
	.loc 1 362 36
	movss	%xmm0, 124(%rax)
	.loc 1 365 3
	movq	-832(%rbp), %rax
	movq	%rax, %rdi
	call	sbuffer_destroy@PLT
	.loc 1 369 7
	movl	verbose_flag.1(%rip), %eax
	.loc 1 369 6
	testl	%eax, %eax
	je	.L48
	.loc 1 370 59
	movq	config_struct(%rip), %rax
	movss	120(%rax), %xmm0
	.loc 1 370 4
	pxor	%xmm5, %xmm5
	cvtss2sd	%xmm0, %xmm5
	movq	%xmm5, %rax
	movq	%rax, %xmm0
	leaq	.LC26(%rip), %rax
	movq	%rax, %rdi
	movl	$1, %eax
	call	printf@PLT
	.loc 1 371 42
	movl	-1140(%rbp), %eax
	testq	%rax, %rax
	js	.L59
	pxor	%xmm0, %xmm0
	cvtsi2ssq	%rax, %xmm0
	jmp	.L60
.L59:
	movq	%rax, %rdx
	shrq	%rdx
	andl	$1, %eax
	orq	%rax, %rdx
	pxor	%xmm0, %xmm0
	cvtsi2ssq	%rdx, %xmm0
	addss	%xmm0, %xmm0
.L60:
	movss	-1144(%rbp), %xmm1
	divss	%xmm0, %xmm1
	.loc 1 371 4
	pxor	%xmm6, %xmm6
	cvtss2sd	%xmm1, %xmm6
	movq	%xmm6, %rax
	movq	%rax, %xmm0
	leaq	.LC27(%rip), %rax
	movq	%rax, %rdi
	movl	$1, %eax
	call	printf@PLT
	.loc 1 372 53
	movq	config_struct(%rip), %rax
	movss	124(%rax), %xmm0
	.loc 1 372 4
	pxor	%xmm7, %xmm7
	cvtss2sd	%xmm0, %xmm7
	movq	%xmm7, %rax
	movq	%rax, %xmm0
	leaq	.LC28(%rip), %rax
	movq	%rax, %rdi
	movl	$1, %eax
	call	printf@PLT
.L48:
.LBE4:
	.loc 1 378 2
	movl	$0, %eax
	call	server_init@PLT
	.loc 1 380 19
	movq	config_struct(%rip), %rax
	movzbl	128(%rax), %eax
	.loc 1 380 5
	testb	%al, %al
	je	.L61
	.loc 1 381 3
	movl	$0, %eax
	call	mqtt_begin@PLT
.L61:
	.loc 1 383 6
	cmpq	$0, -1096(%rbp)
	sete	%al
	movb	%al, -1165(%rbp)
	.loc 1 385 2
	movzbl	-1165(%rbp), %eax
	movl	%eax, %edi
	call	output_open@PLT
	.loc 1 387 6
	movl	verbose_flag.1(%rip), %eax
	.loc 1 387 5
	testl	%eax, %eax
	je	.L62
	.loc 1 388 3
	leaq	.LC29(%rip), %rax
	movq	%rax, %rdi
	call	puts@PLT
.L62:
	.loc 1 390 9
	movq	$0, -1000(%rbp)
	.loc 1 391 9
	movq	$0, -992(%rbp)
	.loc 1 392 9
	movq	$0, -984(%rbp)
	.loc 1 393 9
	movq	$0, -976(%rbp)
	.loc 1 395 6
	movzbl	-1165(%rbp), %eax
	xorl	$1, %eax
	.loc 1 395 5
	testb	%al, %al
	je	.L63
	.loc 1 396 8
	leaq	.LC30(%rip), %rax
	movq	%rax, %rdi
	call	audit_create@PLT
	movq	%rax, -1000(%rbp)
	.loc 1 397 8
	leaq	.LC31(%rip), %rax
	movq	%rax, %rdi
	call	audit_create@PLT
	movq	%rax, -992(%rbp)
	.loc 1 398 8
	leaq	.LC32(%rip), %rax
	movq	%rax, %rdi
	call	audit_create@PLT
	movq	%rax, -984(%rbp)
	.loc 1 399 8
	leaq	.LC33(%rip), %rax
	movq	%rax, %rdi
	call	audit_create@PLT
	movq	%rax, -976(%rbp)
.L63:
	.loc 1 402 5
	cmpb	$0, -1165(%rbp)
	je	.L64
	.loc 1 403 17
	movq	config_struct(%rip), %rax
	.loc 1 403 40
	movl	$1, 80(%rax)
.L64:
	.loc 1 406 2
	movl	$0, %eax
	call	lae_average_create@PLT
	.loc 1 408 6
	movl	verbose_flag.1(%rip), %eax
	.loc 1 408 5
	testl	%eax, %eax
	je	.L65
	.loc 1 409 3
	leaq	.LC34(%rip), %rax
	movq	%rax, %rdi
	call	puts@PLT
.L65:
	.loc 1 411 11
	movl	$0, -1136(%rbp)
	.loc 1 412 15
	movl	-1156(%rbp), %eax
	imull	$1000, %eax, %eax
	movl	%eax, -1156(%rbp)
	.loc 1 414 2
	movl	$0, %eax
	call	record_start@PLT
	.loc 1 416 8
	jmp	.L66
.L85:
.LBB7:
	.loc 1 417 66
	movq	config_struct(%rip), %rax
	movl	68(%rax), %eax
	.loc 1 417 24
	movl	%eax, %edx
	movq	-928(%rbp), %rax
	movq	%rdx, %rsi
	movq	%rax, %rdi
	call	input_device_read@PLT
	movq	%rax, -808(%rbp)
	.loc 1 418 6
	cmpq	$0, -808(%rbp)
	je	.L96
.LBB8:
	.loc 1 421 11
	movl	$0, -1132(%rbp)
	.loc 1 421 3
	jmp	.L69
.L71:
.LBB9:
	.loc 1 422 26
	movl	-1132(%rbp), %eax
	movslq	%eax, %rdx
	movq	%rdx, %rax
	addq	%rax, %rax
	addq	%rdx, %rax
	salq	$3, %rax
	leaq	-16(%rax), %rax
	addq	%rbp, %rax
	subq	$720, %rax
	movq	(%rax), %rax
	movq	%rax, %rdi
	call	sbuffer_write_ptr@PLT
	movq	%rax, -760(%rbp)
	.loc 1 423 18
	movl	-1132(%rbp), %eax
	movslq	%eax, %rdx
	movq	%rdx, %rax
	addq	%rax, %rax
	addq	%rdx, %rax
	salq	$3, %rax
	leaq	-16(%rax), %rax
	addq	%rbp, %rax
	subq	$720, %rax
	movq	(%rax), %rax
	movq	%rax, %rdi
	call	sbuffer_write_size@PLT
	.loc 1 423 18 is_stmt 0 discriminator 1
	movl	%eax, %eax
	.loc 1 423 35 is_stmt 1 discriminator 1
	cmpq	-808(%rbp), %rax
	jnb	.L70
	.loc 1 423 12 discriminator 1
	leaq	__PRETTY_FUNCTION__.0(%rip), %rax
	movq	%rax, %rcx
	movl	$423, %edx
	leaq	.LC22(%rip), %rax
	movq	%rax, %rsi
	leaq	.LC35(%rip), %rax
	movq	%rax, %rdi
	call	__assert_fail@PLT
.L70:
	.loc 1 424 4
	movq	-808(%rbp), %rax
	movl	%eax, %ecx
	movl	-1132(%rbp), %eax
	movslq	%eax, %rdx
	movq	%rdx, %rax
	addq	%rax, %rax
	addq	%rdx, %rax
	salq	$3, %rax
	leaq	-16(%rax), %rax
	addq	%rbp, %rax
	subq	$736, %rax
	movq	(%rax), %rax
	movq	-760(%rbp), %rdx
	movq	-928(%rbp), %rsi
	movq	%rax, %rdi
	call	third_octave_filtering@PLT
	.loc 1 425 4
	movq	-808(%rbp), %rax
	movl	%eax, %edx
	movq	-760(%rbp), %rcx
	movq	-760(%rbp), %rax
	movq	%rcx, %rsi
	movq	%rax, %rdi
	call	process_block_square@PLT
	.loc 1 426 4
	movq	-808(%rbp), %rax
	movl	%eax, %ecx
	movq	-760(%rbp), %rdx
	movq	-760(%rbp), %rsi
	movq	-960(%rbp), %rax
	movq	%rax, %rdi
	call	timeweight_filtering@PLT
	.loc 1 427 4
	movq	-808(%rbp), %rax
	movl	%eax, %ecx
	movl	-1132(%rbp), %eax
	movslq	%eax, %rdx
	movq	%rdx, %rax
	addq	%rax, %rax
	addq	%rdx, %rax
	salq	$3, %rax
	leaq	-16(%rax), %rax
	addq	%rbp, %rax
	subq	$720, %rax
	movq	(%rax), %rax
	movl	%ecx, %esi
	movq	%rax, %rdi
	call	sbuffer_write_produces@PLT
.LBE9:
	.loc 1 421 23 discriminator 2
	addl	$1, -1132(%rbp)
.L69:
	.loc 1 421 17 discriminator 1
	cmpl	$29, -1132(%rbp)
	jle	.L71
.LBE8:
	.loc 1 430 25
	movq	-920(%rbp), %rax
	movq	%rax, %rdi
	call	sbuffer_write_ptr@PLT
	movq	%rax, -800(%rbp)
	.loc 1 431 25
	movq	-912(%rbp), %rax
	movq	%rax, %rdi
	call	sbuffer_write_ptr@PLT
	movq	%rax, -792(%rbp)
	.loc 1 432 25
	movq	-904(%rbp), %rax
	movq	%rax, %rdi
	call	sbuffer_write_ptr@PLT
	movq	%rax, -784(%rbp)
	.loc 1 433 29
	movq	-896(%rbp), %rax
	movq	%rax, %rdi
	call	sbuffer_write_ptr@PLT
	movq	%rax, -776(%rbp)
	.loc 1 434 29
	movq	-896(%rbp), %rax
	movq	%rax, %rdi
	call	sbuffer_write_ptr@PLT
	movq	%rax, -768(%rbp)
	.loc 1 435 17
	movq	-920(%rbp), %rax
	movq	%rax, %rdi
	call	sbuffer_write_size@PLT
	.loc 1 435 17 is_stmt 0 discriminator 1
	movl	%eax, %eax
	.loc 1 435 34 is_stmt 1 discriminator 1
	cmpq	-808(%rbp), %rax
	jnb	.L72
	.loc 1 435 11 discriminator 1
	leaq	__PRETTY_FUNCTION__.0(%rip), %rax
	movq	%rax, %rcx
	movl	$435, %edx
	leaq	.LC22(%rip), %rax
	movq	%rax, %rsi
	leaq	.LC36(%rip), %rax
	movq	%rax, %rdi
	call	__assert_fail@PLT
.L72:
	.loc 1 436 17
	movq	-912(%rbp), %rax
	movq	%rax, %rdi
	call	sbuffer_write_size@PLT
	.loc 1 436 17 is_stmt 0 discriminator 1
	movl	%eax, %eax
	.loc 1 436 34 is_stmt 1 discriminator 1
	cmpq	-808(%rbp), %rax
	jnb	.L73
	.loc 1 436 11 discriminator 1
	leaq	__PRETTY_FUNCTION__.0(%rip), %rax
	movq	%rax, %rcx
	movl	$436, %edx
	leaq	.LC22(%rip), %rax
	movq	%rax, %rsi
	leaq	.LC37(%rip), %rax
	movq	%rax, %rdi
	call	__assert_fail@PLT
.L73:
	.loc 1 437 17
	movq	-904(%rbp), %rax
	movq	%rax, %rdi
	call	sbuffer_write_size@PLT
	.loc 1 437 17 is_stmt 0 discriminator 1
	movl	%eax, %eax
	.loc 1 437 34 is_stmt 1 discriminator 1
	cmpq	-808(%rbp), %rax
	jnb	.L74
	.loc 1 437 11 discriminator 1
	leaq	__PRETTY_FUNCTION__.0(%rip), %rax
	movq	%rax, %rcx
	movl	$437, %edx
	leaq	.LC22(%rip), %rax
	movq	%rax, %rsi
	leaq	.LC38(%rip), %rax
	movq	%rax, %rdi
	call	__assert_fail@PLT
.L74:
	.loc 1 438 17
	movq	-896(%rbp), %rax
	movq	%rax, %rdi
	call	sbuffer_write_size@PLT
	.loc 1 438 17 is_stmt 0 discriminator 1
	movl	%eax, %eax
	.loc 1 438 34 is_stmt 1 discriminator 1
	cmpq	-808(%rbp), %rax
	jnb	.L75
	.loc 1 438 11 discriminator 1
	leaq	__PRETTY_FUNCTION__.0(%rip), %rax
	movq	%rax, %rcx
	movl	$438, %edx
	leaq	.LC22(%rip), %rax
	movq	%rax, %rsi
	leaq	.LC39(%rip), %rax
	movq	%rax, %rdi
	call	__assert_fail@PLT
.L75:
	.loc 1 439 17
	movq	-888(%rbp), %rax
	movq	%rax, %rdi
	call	sbuffer_write_size@PLT
	.loc 1 439 17 is_stmt 0 discriminator 1
	movl	%eax, %eax
	.loc 1 439 34 is_stmt 1 discriminator 1
	cmpq	-808(%rbp), %rax
	jnb	.L76
	.loc 1 439 11 discriminator 1
	leaq	__PRETTY_FUNCTION__.0(%rip), %rax
	movq	%rax, %rcx
	movl	$439, %edx
	leaq	.LC22(%rip), %rax
	movq	%rax, %rsi
	leaq	.LC40(%rip), %rax
	movq	%rax, %rdi
	call	__assert_fail@PLT
.L76:
	.loc 1 441 3
	movq	-808(%rbp), %rax
	leaq	0(,%rax,4), %rdx
	movq	-928(%rbp), %rcx
	movq	-800(%rbp), %rax
	movq	%rcx, %rsi
	movq	%rax, %rdi
	call	memcpy@PLT
	.loc 1 442 3
	movq	-808(%rbp), %rax
	movl	%eax, %ecx
	movq	-792(%rbp), %rdx
	movq	-928(%rbp), %rsi
	movq	-944(%rbp), %rax
	movq	%rax, %rdi
	call	aweighting_filtering@PLT
	.loc 1 443 3
	movq	-808(%rbp), %rax
	movl	%eax, %ecx
	movq	-784(%rbp), %rdx
	movq	-928(%rbp), %rsi
	movq	-936(%rbp), %rax
	movq	%rax, %rdi
	call	cweighting_filtering@PLT
	.loc 1 444 3
	movq	-808(%rbp), %rax
	movl	%eax, %edx
	movq	-920(%rbp), %rax
	movl	%edx, %esi
	movq	%rax, %rdi
	call	sbuffer_write_produces@PLT
	.loc 1 445 3
	movq	-808(%rbp), %rax
	movl	%eax, %edx
	movq	-912(%rbp), %rax
	movl	%edx, %esi
	movq	%rax, %rdi
	call	sbuffer_write_produces@PLT
	.loc 1 446 3
	movq	-808(%rbp), %rax
	movl	%eax, %edx
	movq	-904(%rbp), %rax
	movl	%edx, %esi
	movq	%rax, %rdi
	call	sbuffer_write_produces@PLT
	.loc 1 448 3
	movq	-808(%rbp), %rax
	movl	%eax, %edx
	movq	-776(%rbp), %rcx
	movq	-792(%rbp), %rax
	movq	%rcx, %rsi
	movq	%rax, %rdi
	call	process_block_square@PLT
	.loc 1 449 3
	movq	-808(%rbp), %rax
	movl	%eax, %edx
	movq	-768(%rbp), %rcx
	movq	-792(%rbp), %rax
	movq	%rcx, %rsi
	movq	%rax, %rdi
	call	process_block_square@PLT
	.loc 1 451 3
	movq	-808(%rbp), %rax
	movl	%eax, %ecx
	movq	-776(%rbp), %rdx
	movq	-776(%rbp), %rsi
	movq	-960(%rbp), %rax
	movq	%rax, %rdi
	call	timeweight_filtering@PLT
	.loc 1 452 3
	movq	-808(%rbp), %rax
	movl	%eax, %ecx
	movq	-768(%rbp), %rdx
	movq	-768(%rbp), %rsi
	movq	-952(%rbp), %rax
	movq	%rax, %rdi
	call	timeweight_filtering@PLT
	.loc 1 453 3
	movq	-808(%rbp), %rax
	movl	%eax, %edx
	movq	-896(%rbp), %rax
	movl	%edx, %esi
	movq	%rax, %rdi
	call	sbuffer_write_produces@PLT
	.loc 1 454 3
	movq	-808(%rbp), %rax
	movl	%eax, %edx
	movq	-888(%rbp), %rax
	movl	%edx, %esi
	movq	%rax, %rdi
	call	sbuffer_write_produces@PLT
	.loc 1 456 7
	movzbl	-1165(%rbp), %eax
	xorl	$1, %eax
	.loc 1 456 6
	testb	%al, %al
	je	.L77
	.loc 1 457 4
	movq	-808(%rbp), %rax
	movl	%eax, %edx
	movq	-928(%rbp), %rcx
	movq	-1000(%rbp), %rax
	movq	%rcx, %rsi
	movq	%rax, %rdi
	call	audit_append_samples@PLT
	.loc 1 458 4
	movq	-808(%rbp), %rax
	movl	%eax, %edx
	movq	-792(%rbp), %rcx
	movq	-992(%rbp), %rax
	movq	%rcx, %rsi
	movq	%rax, %rdi
	call	audit_append_samples@PLT
	.loc 1 459 4
	movq	-808(%rbp), %rax
	movl	%eax, %edx
	movq	-792(%rbp), %rcx
	movq	-984(%rbp), %rax
	movq	%rcx, %rsi
	movq	%rax, %rdi
	call	audit_append_samples@PLT
	.loc 1 460 4
	movq	-808(%rbp), %rax
	movl	%eax, %edx
	movq	-776(%rbp), %rcx
	movq	-976(%rbp), %rax
	movq	%rcx, %rsi
	movq	%rax, %rdi
	call	audit_append_samples@PLT
.L77:
	.loc 1 463 7
	movq	-896(%rbp), %rax
	movq	%rax, %rdi
	call	sbuffer_size@PLT
	movl	%eax, %edx
	.loc 1 463 48 discriminator 1
	movq	config_struct(%rip), %rax
	movl	76(%rax), %eax
	.loc 1 463 6 discriminator 1
	cmpl	%eax, %edx
	jb	.L78
.LBB10:
.LBB11:
	.loc 1 464 12
	movl	$0, -1128(%rbp)
	.loc 1 464 4
	jmp	.L79
.L80:
	.loc 1 465 5
	movq	config_struct(%rip), %rsi
	movl	-1128(%rbp), %eax
	movslq	%eax, %rdx
	movq	%rdx, %rax
	addq	%rax, %rax
	addq	%rdx, %rax
	salq	$3, %rax
	leaq	-16(%rax), %rax
	addq	%rbp, %rax
	subq	$720, %rax
	movq	(%rax), %rcx
	movl	-1128(%rbp), %eax
	movslq	%eax, %rdx
	movq	%rdx, %rax
	addq	%rax, %rax
	addq	%rdx, %rax
	salq	$3, %rax
	leaq	-16(%rax), %rax
	addq	%rbp, %rax
	subq	$728, %rax
	movq	(%rax), %rax
	movq	%rsi, %rdx
	movq	%rcx, %rsi
	movq	%rax, %rdi
	call	process_segment_levels@PLT
	.loc 1 464 24 discriminator 3
	addl	$1, -1128(%rbp)
.L79:
	.loc 1 464 18 discriminator 1
	cmpl	$29, -1128(%rbp)
	jle	.L80
.LBE11:
	.loc 1 467 4
	movq	config_struct(%rip), %rdx
	movq	-920(%rbp), %rcx
	movq	-880(%rbp), %rax
	movq	%rcx, %rsi
	movq	%rax, %rdi
	call	process_segment_levels@PLT
	.loc 1 468 4
	movq	config_struct(%rip), %rdx
	movq	-912(%rbp), %rcx
	movq	-872(%rbp), %rax
	movq	%rcx, %rsi
	movq	%rax, %rdi
	call	process_segment_levels@PLT
	.loc 1 469 4
	movq	config_struct(%rip), %rdx
	movq	-904(%rbp), %rcx
	movq	-864(%rbp), %rax
	movq	%rcx, %rsi
	movq	%rax, %rdi
	call	process_segment_levels@PLT
	.loc 1 470 4
	movq	config_struct(%rip), %rdx
	movq	-896(%rbp), %rcx
	movq	-856(%rbp), %rax
	movq	%rcx, %rsi
	movq	%rax, %rdi
	call	process_segment_levels@PLT
	.loc 1 471 4
	movq	config_struct(%rip), %rdx
	movq	-888(%rbp), %rcx
	movq	-848(%rbp), %rax
	movq	%rcx, %rsi
	movq	%rax, %rdi
	call	process_segment_levels@PLT
	.loc 1 473 48
	movq	-856(%rbp), %rax
	movl	(%rax), %edx
	.loc 1 473 34
	movq	-840(%rbp), %rax
	movl	%edx, (%rax)
	.loc 1 474 75
	movq	-856(%rbp), %rax
	movq	8(%rax), %rdx
	.loc 1 474 94
	movq	-856(%rbp), %rax
	movl	(%rax), %eax
	.loc 1 474 111
	subl	$1, %eax
	movl	%eax, %eax
	.loc 1 474 81
	salq	$2, %rax
	addq	%rax, %rdx
	.loc 1 474 19
	movq	-840(%rbp), %rax
	movq	8(%rax), %rcx
	.loc 1 474 39
	movq	-840(%rbp), %rax
	movl	(%rax), %eax
	.loc 1 474 56
	subl	$1, %eax
	movl	%eax, %eax
	.loc 1 474 25
	salq	$2, %rax
	addq	%rcx, %rax
	.loc 1 474 81
	movss	(%rdx), %xmm0
	.loc 1 474 61
	movss	%xmm0, (%rax)
	.loc 1 475 77
	movq	-856(%rbp), %rax
	movq	32(%rax), %rdx
	.loc 1 475 98
	movq	-856(%rbp), %rax
	movl	(%rax), %eax
	.loc 1 475 115
	subl	$1, %eax
	movl	%eax, %eax
	.loc 1 475 85
	salq	$2, %rax
	addq	%rax, %rdx
	.loc 1 475 19
	movq	-840(%rbp), %rax
	movq	32(%rax), %rcx
	.loc 1 475 41
	movq	-840(%rbp), %rax
	movl	(%rax), %eax
	.loc 1 475 58
	subl	$1, %eax
	movl	%eax, %eax
	.loc 1 475 27
	salq	$2, %rax
	addq	%rcx, %rax
	.loc 1 475 85
	movss	(%rdx), %xmm0
	.loc 1 475 63
	movss	%xmm0, (%rax)
	.loc 1 476 74
	movq	-856(%rbp), %rax
	movq	40(%rax), %rdx
	.loc 1 476 92
	movq	-856(%rbp), %rax
	movl	(%rax), %eax
	.loc 1 476 109
	subl	$1, %eax
	movl	%eax, %eax
	.loc 1 476 79
	salq	$2, %rax
	addq	%rax, %rdx
	.loc 1 476 19
	movq	-840(%rbp), %rax
	movq	40(%rax), %rcx
	.loc 1 476 38
	movq	-840(%rbp), %rax
	movl	(%rax), %eax
	.loc 1 476 55
	subl	$1, %eax
	movl	%eax, %eax
	.loc 1 476 24
	salq	$2, %rax
	addq	%rcx, %rax
	.loc 1 476 79
	movss	(%rdx), %xmm0
	.loc 1 476 60
	movss	%xmm0, (%rax)
	.loc 1 477 77
	movq	-856(%rbp), %rax
	movq	24(%rax), %rdx
	.loc 1 477 98
	movq	-856(%rbp), %rax
	movl	(%rax), %eax
	.loc 1 477 115
	subl	$1, %eax
	movl	%eax, %eax
	.loc 1 477 85
	salq	$2, %rax
	addq	%rax, %rdx
	.loc 1 477 19
	movq	-840(%rbp), %rax
	movq	24(%rax), %rcx
	.loc 1 477 41
	movq	-840(%rbp), %rax
	movl	(%rax), %eax
	.loc 1 477 58
	subl	$1, %eax
	movl	%eax, %eax
	.loc 1 477 27
	salq	$2, %rax
	addq	%rcx, %rax
	.loc 1 477 85
	movss	(%rdx), %xmm0
	.loc 1 477 63
	movss	%xmm0, (%rax)
	.loc 1 478 73
	movq	-864(%rbp), %rax
	movq	24(%rax), %rdx
	.loc 1 478 90
	movq	-864(%rbp), %rax
	movl	(%rax), %eax
	.loc 1 478 107
	subl	$1, %eax
	movl	%eax, %eax
	.loc 1 478 81
	salq	$2, %rax
	addq	%rax, %rdx
	.loc 1 478 19
	movq	-840(%rbp), %rax
	movq	16(%rax), %rcx
	.loc 1 478 41
	movq	-840(%rbp), %rax
	movl	(%rax), %eax
	.loc 1 478 58
	subl	$1, %eax
	movl	%eax, %eax
	.loc 1 478 27
	salq	$2, %rax
	addq	%rcx, %rax
	.loc 1 478 81
	movss	(%rdx), %xmm0
	.loc 1 478 63
	movss	%xmm0, (%rax)
	.loc 1 481 37
	movq	-840(%rbp), %rax
	movl	(%rax), %eax
	.loc 1 481 54
	subl	$1, %eax
	.loc 1 481 8
	movl	%eax, -1108(%rbp)
	.loc 1 487 19
	movq	-840(%rbp), %rax
	movq	16(%rax), %rax
	.loc 1 487 27
	movl	-1108(%rbp), %edx
	movslq	%edx, %rdx
	salq	$2, %rdx
	addq	%rdx, %rax
	.loc 1 483 4
	movss	(%rax), %xmm5
	movss	%xmm5, -1176(%rbp)
	.loc 1 486 19
	movq	-840(%rbp), %rax
	movq	24(%rax), %rax
	.loc 1 486 27
	movl	-1108(%rbp), %edx
	movslq	%edx, %rdx
	salq	$2, %rdx
	addq	%rdx, %rax
	.loc 1 483 4
	movss	(%rax), %xmm6
	movss	%xmm6, -1188(%rbp)
	.loc 1 485 19
	movq	-840(%rbp), %rax
	movq	40(%rax), %rax
	.loc 1 485 24
	movl	-1108(%rbp), %edx
	movslq	%edx, %rdx
	salq	$2, %rdx
	addq	%rdx, %rax
	.loc 1 483 4
	movss	(%rax), %xmm7
	movss	%xmm7, -1192(%rbp)
	.loc 1 484 19
	movq	-840(%rbp), %rax
	movq	32(%rax), %rax
	.loc 1 484 27
	movl	-1108(%rbp), %edx
	movslq	%edx, %rdx
	salq	$2, %rdx
	addq	%rdx, %rax
	.loc 1 483 4
	movss	(%rax), %xmm1
	movss	%xmm1, -1196(%rbp)
	.loc 1 483 50
	movq	-840(%rbp), %rax
	movq	8(%rax), %rax
	.loc 1 483 56
	movl	-1108(%rbp), %edx
	movslq	%edx, %rdx
	salq	$2, %rdx
	addq	%rdx, %rax
	.loc 1 483 4
	movl	(%rax), %ebx
	.loc 1 483 26
	movl	$0, %edi
	call	time@PLT
	.loc 1 483 4 discriminator 1
	movss	-1176(%rbp), %xmm4
	movss	-1188(%rbp), %xmm3
	movss	-1192(%rbp), %xmm2
	movss	-1196(%rbp), %xmm1
	movd	%ebx, %xmm0
	movq	%rax, %rdi
	call	server_send@PLT
	.loc 1 489 21
	movq	config_struct(%rip), %rax
	movzbl	128(%rax), %eax
	.loc 1 489 7
	testb	%al, %al
	je	.L81
	.loc 1 490 46
	movq	-840(%rbp), %rax
	movl	(%rax), %eax
	.loc 1 490 63
	subl	$1, %eax
	.loc 1 490 5
	movl	%eax, %edx
	movq	-840(%rbp), %rax
	movl	%edx, %esi
	movq	%rax, %rdi
	call	mqtt_publish@PLT
.L81:
	.loc 1 491 8
	movl	verbose_flag.1(%rip), %eax
	.loc 1 491 7
	testl	%eax, %eax
	je	.L82
	.loc 1 497 19
	movq	-840(%rbp), %rax
	movq	16(%rax), %rax
	.loc 1 497 27
	movl	-1108(%rbp), %edx
	movslq	%edx, %rdx
	salq	$2, %rdx
	addq	%rdx, %rax
	movss	(%rax), %xmm0
	.loc 1 492 5
	pxor	%xmm3, %xmm3
	cvtss2sd	%xmm0, %xmm3
	.loc 1 496 19
	movq	-840(%rbp), %rax
	movq	24(%rax), %rax
	.loc 1 496 27
	movl	-1108(%rbp), %edx
	movslq	%edx, %rdx
	salq	$2, %rdx
	addq	%rdx, %rax
	movss	(%rax), %xmm0
	.loc 1 492 5
	pxor	%xmm2, %xmm2
	cvtss2sd	%xmm0, %xmm2
	.loc 1 495 19
	movq	-840(%rbp), %rax
	movq	40(%rax), %rax
	.loc 1 495 24
	movl	-1108(%rbp), %edx
	movslq	%edx, %rdx
	salq	$2, %rdx
	addq	%rdx, %rax
	movss	(%rax), %xmm0
	.loc 1 492 5
	pxor	%xmm1, %xmm1
	cvtss2sd	%xmm0, %xmm1
	.loc 1 494 19
	movq	-840(%rbp), %rax
	movq	32(%rax), %rax
	.loc 1 494 27
	movl	-1108(%rbp), %edx
	movslq	%edx, %rdx
	salq	$2, %rdx
	addq	%rdx, %rax
	movss	(%rax), %xmm0
	.loc 1 492 5
	cvtss2sd	%xmm0, %xmm0
	.loc 1 493 19
	movq	-840(%rbp), %rax
	movq	8(%rax), %rax
	.loc 1 493 25
	movl	-1108(%rbp), %edx
	movslq	%edx, %rdx
	salq	$2, %rdx
	addq	%rdx, %rax
	movss	(%rax), %xmm4
	.loc 1 492 5
	cvtss2sd	%xmm4, %xmm4
	movq	%xmm4, %rax
	movapd	%xmm3, %xmm4
	movapd	%xmm2, %xmm3
	movapd	%xmm1, %xmm2
	movapd	%xmm0, %xmm1
	movq	%rax, %xmm0
	leaq	.LC41(%rip), %rax
	movq	%rax, %rdi
	movl	$5, %eax
	call	printf@PLT
.L82:
	.loc 1 499 33
	movq	config_struct(%rip), %rax
	movl	72(%rax), %eax
	.loc 1 499 17
	addl	%eax, -1136(%rbp)
.L78:
.LBE10:
	.loc 1 503 20
	movq	-840(%rbp), %rax
	movl	(%rax), %edx
	.loc 1 503 53
	movq	config_struct(%rip), %rax
	movl	80(%rax), %eax
	.loc 1 503 6
	cmpl	%eax, %edx
	jne	.L83
	.loc 1 504 4
	movzbl	-1165(%rbp), %edx
	movq	-840(%rbp), %rax
	movl	%edx, %esi
	movq	%rax, %rdi
	call	output_record@PLT
.L83:
	.loc 1 507 6
	cmpb	$0, -1165(%rbp)
	je	.L66
	.loc 1 508 17
	movq	record_struct(%rip), %rax
	movq	944(%rax), %rcx
	.loc 1 508 48
	movq	config_struct(%rip), %rax
	movl	56(%rax), %edx
	.loc 1 508 77
	movq	config_struct(%rip), %rax
	movl	92(%rax), %eax
	.loc 1 508 62
	imull	%edx, %eax
	movl	%eax, %eax
	.loc 1 507 18 discriminator 1
	cmpq	%rax, %rcx
	jl	.L66
	.loc 1 510 4
	movl	$0, %eax
	call	record_stop@PLT
	.loc 1 511 8
	movl	$0, %eax
	call	record_start@PLT
	.loc 1 511 6 discriminator 1
	testl	%eax, %eax
	jne	.L66
	.loc 1 512 5
	movq	stderr(%rip), %rax
	movq	%rax, %rcx
	movl	$49, %edx
	movl	$1, %esi
	leaq	.LC42(%rip), %rax
	movq	%rax, %rdi
	call	fwrite@PLT
	.loc 1 513 12
	movl	$1, %eax
	jmp	.L91
.L66:
.LBE7:
	.loc 1 416 9
	movzbl	running(%rip), %eax
	.loc 1 416 17
	testb	%al, %al
	je	.L68
	.loc 1 416 17 is_stmt 0 discriminator 1
	cmpl	$0, -1156(%rbp)
	je	.L85
	.loc 1 416 55 is_stmt 1 discriminator 2
	movl	-1156(%rbp), %eax
	.loc 1 416 39 discriminator 2
	cmpl	%eax, -1136(%rbp)
	jb	.L85
	jmp	.L68
.L96:
.LBB12:
	.loc 1 419 4
	nop
.L68:
.LBE12:
	.loc 1 517 10
	movb	$0, running(%rip)
	.loc 1 518 6
	movl	verbose_flag.1(%rip), %eax
	.loc 1 518 5
	testl	%eax, %eax
	je	.L86
	.loc 1 519 3
	movl	-1136(%rbp), %eax
	movl	%eax, %eax
	imulq	$274877907, %rax, %rax
	shrq	$32, %rax
	shrl	$6, %eax
	movl	%eax, %esi
	leaq	.LC43(%rip), %rax
	movq	%rax, %rdi
	movl	$0, %eax
	call	printf@PLT
.L86:
	.loc 1 521 2
	movzbl	-1165(%rbp), %edx
	movq	-840(%rbp), %rax
	movl	%edx, %esi
	movq	%rax, %rdi
	call	output_record@PLT
	.loc 1 523 6
	movl	verbose_flag.1(%rip), %eax
	.loc 1 523 5
	testl	%eax, %eax
	je	.L87
	.loc 1 524 3
	leaq	.LC44(%rip), %rax
	movq	%rax, %rdi
	call	puts@PLT
.L87:
	.loc 1 525 2
	leaq	.LC45(%rip), %rax
	movq	%rax, %rdi
	call	config_save@PLT
	.loc 1 537 2
	movl	$0, %eax
	call	server_end@PLT
	.loc 1 538 19
	movq	config_struct(%rip), %rax
	movzbl	128(%rax), %eax
	.loc 1 538 5
	testb	%al, %al
	je	.L88
	.loc 1 539 3
	movl	$0, %eax
	call	mqtt_end@PLT
.L88:
	.loc 1 540 2
	movl	$0, %eax
	call	input_device_close@PLT
	.loc 1 541 2
	movl	$0, %eax
	call	output_close@PLT
.LBB13:
	.loc 1 543 10
	movl	$0, -1124(%rbp)
	.loc 1 543 2
	jmp	.L89
.L90:
	.loc 1 544 3
	movl	-1124(%rbp), %eax
	movslq	%eax, %rdx
	movq	%rdx, %rax
	addq	%rax, %rax
	addq	%rdx, %rax
	salq	$3, %rax
	leaq	-16(%rax), %rax
	addq	%rbp, %rax
	subq	$728, %rax
	movq	(%rax), %rax
	movq	%rax, %rdi
	call	levels_destroy@PLT
	.loc 1 545 3
	movl	-1124(%rbp), %eax
	movslq	%eax, %rdx
	movq	%rdx, %rax
	addq	%rax, %rax
	addq	%rdx, %rax
	salq	$3, %rax
	leaq	-16(%rax), %rax
	addq	%rbp, %rax
	subq	$736, %rax
	movq	(%rax), %rax
	movq	%rax, %rdi
	call	third_octave_destroy@PLT
	.loc 1 546 3
	movl	-1124(%rbp), %eax
	movslq	%eax, %rdx
	movq	%rdx, %rax
	addq	%rax, %rax
	addq	%rdx, %rax
	salq	$3, %rax
	leaq	-16(%rax), %rax
	addq	%rbp, %rax
	subq	$720, %rax
	movq	(%rax), %rax
	movq	%rax, %rdi
	call	sbuffer_destroy@PLT
	.loc 1 543 22 discriminator 3
	addl	$1, -1124(%rbp)
.L89:
	.loc 1 543 16 discriminator 1
	cmpl	$29, -1124(%rbp)
	jle	.L90
.LBE13:
	.loc 1 549 2
	movq	-840(%rbp), %rax
	movq	%rax, %rdi
	call	levels_destroy@PLT
	.loc 1 550 2
	movq	-864(%rbp), %rax
	movq	%rax, %rdi
	call	levels_destroy@PLT
	.loc 1 551 2
	movq	-872(%rbp), %rax
	movq	%rax, %rdi
	call	levels_destroy@PLT
	.loc 1 552 2
	movq	-880(%rbp), %rax
	movq	%rax, %rdi
	call	levels_destroy@PLT
	.loc 1 553 2
	movq	-848(%rbp), %rax
	movq	%rax, %rdi
	call	levels_destroy@PLT
	.loc 1 554 2
	movq	-856(%rbp), %rax
	movq	%rax, %rdi
	call	levels_destroy@PLT
	.loc 1 555 2
	movq	-960(%rbp), %rax
	movq	%rax, %rdi
	call	timeweight_destroy@PLT
	.loc 1 556 2
	movq	-952(%rbp), %rax
	movq	%rax, %rdi
	call	timeweight_destroy@PLT
	.loc 1 557 2
	movq	-944(%rbp), %rax
	movq	%rax, %rdi
	call	aweighting_destroy@PLT
	.loc 1 558 2
	movq	-936(%rbp), %rax
	movq	%rax, %rdi
	call	cweighting_destroy@PLT
	.loc 1 559 2
	movl	$0, %eax
	call	lae_average_destroy@PLT
	.loc 1 560 2
	movq	config_struct(%rip), %rax
	movq	%rax, %rdi
	movl	$0, %eax
	call	config_destroy@PLT
	.loc 1 561 2
	movq	-928(%rbp), %rax
	movq	%rax, %rdi
	call	free@PLT
	.loc 1 562 2
	movq	-904(%rbp), %rax
	movq	%rax, %rdi
	call	sbuffer_destroy@PLT
	.loc 1 563 2
	movq	-912(%rbp), %rax
	movq	%rax, %rdi
	call	sbuffer_destroy@PLT
	.loc 1 564 2
	movq	-920(%rbp), %rax
	movq	%rax, %rdi
	call	sbuffer_destroy@PLT
	.loc 1 565 2
	movq	-888(%rbp), %rax
	movq	%rax, %rdi
	call	sbuffer_destroy@PLT
	.loc 1 566 2
	movq	-896(%rbp), %rax
	movq	%rax, %rdi
	call	sbuffer_destroy@PLT
	.loc 1 567 36
	movq	record_struct(%rip), %rax
	.loc 1 567 2
	movq	952(%rax), %rax
	movq	%rax, %rdi
	call	delete_files_storage@PLT
	.loc 1 568 36
	movq	record_struct(%rip), %rax
	.loc 1 568 2
	movq	960(%rax), %rax
	movq	%rax, %rdi
	call	delete_files_storage@PLT
	movl	$0, %eax
.L91:
	.loc 1 569 1
	movq	-24(%rbp), %rdx
	subq	%fs:40, %rdx
	je	.L92
	call	__stack_chk_fail@PLT
.L92:
	movq	-8(%rbp), %rbx
	leave
	.cfi_def_cfa 7, 8
	ret
	.cfi_endproc
.LFE311:
	.size	main, .-main
	.section	.rodata
.LC46:
	.string	"verbose"
.LC47:
	.string	"help"
.LC48:
	.string	"version"
.LC49:
	.string	"device"
.LC50:
	.string	"input"
.LC51:
	.string	"output"
.LC52:
	.string	"output_format"
.LC53:
	.string	"sample_rate"
.LC54:
	.string	"channels"
.LC55:
	.string	"identification"
.LC56:
	.string	"duration"
.LC57:
	.string	"calibrate"
.LC58:
	.string	"config"
.LC59:
	.string	"block_size"
	.section	.data.rel.local,"aw"
	.align 32
	.type	long_options.2, @object
	.size	long_options.2, 480
long_options.2:
	.quad	.LC46
	.long	0
	.zero	4
	.quad	verbose_flag.1
	.long	1
	.zero	4
	.quad	.LC47
	.long	0
	.zero	4
	.quad	0
	.long	104
	.zero	4
	.quad	.LC48
	.long	0
	.zero	4
	.quad	0
	.long	118
	.zero	4
	.quad	.LC49
	.long	1
	.zero	4
	.quad	0
	.long	100
	.zero	4
	.quad	.LC50
	.long	1
	.zero	4
	.quad	0
	.long	105
	.zero	4
	.quad	.LC51
	.long	1
	.zero	4
	.quad	0
	.long	111
	.zero	4
	.quad	.LC52
	.long	1
	.zero	4
	.quad	0
	.long	102
	.zero	4
	.quad	.LC53
	.long	1
	.zero	4
	.quad	0
	.long	114
	.zero	4
	.quad	.LC54
	.long	1
	.zero	4
	.quad	0
	.long	97
	.zero	4
	.quad	.LC55
	.long	1
	.zero	4
	.quad	0
	.long	110
	.zero	4
	.quad	.LC56
	.long	1
	.zero	4
	.quad	0
	.long	116
	.zero	4
	.quad	.LC57
	.long	2
	.zero	4
	.quad	0
	.long	99
	.zero	4
	.quad	.LC58
	.long	1
	.zero	4
	.quad	0
	.long	103
	.zero	4
	.quad	.LC59
	.long	1
	.zero	4
	.quad	0
	.long	98
	.zero	4
	.quad	0
	.long	0
	.zero	4
	.quad	0
	.long	0
	.zero	4
	.local	verbose_flag.1
	.comm	verbose_flag.1,4,4
	.section	.rodata
	.type	__PRETTY_FUNCTION__.0, @object
	.size	__PRETTY_FUNCTION__.0, 5
__PRETTY_FUNCTION__.0:
	.string	"main"
	.text
.Letext0:
	.file 2 "/usr/lib/gcc/x86_64-linux-gnu/13/include/stddef.h"
	.file 3 "/usr/include/x86_64-linux-gnu/bits/types.h"
	.file 4 "/usr/include/x86_64-linux-gnu/bits/types/struct_FILE.h"
	.file 5 "/usr/include/x86_64-linux-gnu/bits/types/FILE.h"
	.file 6 "/usr/include/x86_64-linux-gnu/bits/types/time_t.h"
	.file 7 "/usr/include/stdio.h"
	.file 8 "/usr/include/x86_64-linux-gnu/bits/getopt_core.h"
	.file 9 "/usr/include/x86_64-linux-gnu/bits/getopt_ext.h"
	.file 10 "/usr/include/glib-2.0/glib/gtypes.h"
	.file 11 "/usr/include/glib-2.0/glib/garray.h"
	.file 12 "/usr/include/x86_64-linux-gnu/bits/stdint-intn.h"
	.file 13 "/usr/include/signal.h"
	.file 14 "/usr/include/x86_64-linux-gnu/bits/stdint-uintn.h"
	.file 15 "src/config.h"
	.file 16 "src/process.h"
	.file 17 "src/filter.h"
	.file 18 "/usr/local/include/wave.h"
	.file 19 "src/in_out.h"
	.file 20 "/usr/local/include/ogg/config_types.h"
	.file 21 "/usr/local/include/ogg/ogg.h"
	.file 22 "/usr/local/include/vorbis/codec.h"
	.file 23 "src/storage.h"
	.file 24 "src/record.h"
	.file 25 "src/mqtt.h"
	.file 26 "src/server.h"
	.file 27 "/usr/include/time.h"
	.file 28 "/usr/include/string.h"
	.file 29 "src/sbuffer.h"
	.file 30 "/usr/include/assert.h"
	.file 31 "/usr/include/stdlib.h"
	.section	.note.GNU-stack,"",@progbits
	.section	.note.gnu.property,"a"
	.align 8
	.long	1f - 0f
	.long	4f - 1f
	.long	5
0:
	.string	"GNU"
1:
	.align 8
	.long	0xc0000002
	.long	3f - 2f
2:
	.long	0x3
3:
	.align 8
4:
