	.file	"record.c"
	.text
.Ltext0:
	.file 0 "/home/aluno/Desktop/sound_meter-master_v03_1" "src/record.c"
	.globl	record
	.bss
	.align 32
	.type	record, @object
	.size	record, 976
record:
	.zero	976
	.globl	record_struct
	.section	.data.rel.local,"aw"
	.align 8
	.type	record_struct, @object
	.size	record_struct, 8
record_struct:
	.quad	record
	.globl	removing
	.bss
	.type	removing, @object
	.size	removing, 1
removing:
	.zero	1
	.globl	start
	.type	start, @object
	.size	start, 1
start:
	.zero	1
	.text
	.globl	create_output_file
	.type	create_output_file, @function
create_output_file:
.LFB308:
	.file 1 "src/record.c"
	.loc 1 32 27
	.cfi_startproc
	endbr64
	pushq	%rbp
	.cfi_def_cfa_offset 16
	.cfi_offset 6, -16
	movq	%rsp, %rbp
	.cfi_def_cfa_register 6
	subq	$16, %rsp
	.loc 1 33 18
	movq	config_struct(%rip), %rax
	movq	16(%rax), %rax
	.loc 1 33 4
	testq	%rax, %rax
	jne	.L2
	.loc 1 34 3
	movl	$0, %eax
	call	output_get_audio_filepath@PLT
	.loc 1 34 3 is_stmt 0 discriminator 1
	movq	%rax, %rsi
	movl	$0, %edi
	call	output_new_filename@PLT
.L2:
	.loc 1 36 19 is_stmt 1
	movl	$0, %eax
	call	output_get_audio_filepath@PLT
	movq	%rax, -8(%rbp)
	.loc 1 37 18
	movq	config_struct(%rip), %rax
	movzbl	96(%rax), %eax
	.loc 1 37 4
	testb	%al, %al
	je	.L3
	.loc 1 38 3
	movq	-8(%rbp), %rax
	movq	%rax, %rdi
	call	output_file_open@PLT
.L3:
	.loc 1 39 2
	movq	944+record(%rip), %rax
	movq	-8(%rbp), %rdx
	movq	%rdx, %rsi
	movq	%rax, %rdi
	call	add_file@PLT
	.loc 1 40 1
	nop
	leave
	.cfi_def_cfa 7, 8
	ret
	.cfi_endproc
.LFE308:
	.size	create_output_file, .-create_output_file
	.globl	compare_by_name
	.type	compare_by_name, @function
compare_by_name:
.LFB309:
	.loc 1 52 51
	.cfi_startproc
	endbr64
	pushq	%rbp
	.cfi_def_cfa_offset 16
	.cfi_offset 6, -16
	movq	%rsp, %rbp
	.cfi_def_cfa_register 6
	subq	$32, %rsp
	movq	%rdi, -24(%rbp)
	movq	%rsi, -32(%rbp)
	.loc 1 53 11
	movq	-24(%rbp), %rax
	movq	(%rax), %rax
	movq	%rax, -16(%rbp)
	.loc 1 54 11
	movq	-32(%rbp), %rax
	movq	(%rax), %rax
	movq	%rax, -8(%rbp)
	.loc 1 55 12
	movq	-8(%rbp), %rdx
	movq	-16(%rbp), %rax
	movq	%rdx, %rsi
	movq	%rax, %rdi
	call	strcmp@PLT
	.loc 1 56 1
	leave
	.cfi_def_cfa 7, 8
	ret
	.cfi_endproc
.LFE309:
	.size	compare_by_name, .-compare_by_name
	.section	.rodata
	.align 8
.LC1:
	.string	"For file managing reasons, the parameters used will be:"
	.align 8
.LC2:
	.string	"\taudio_file_duration = %d\n\taudio_loop_recording = %d\n"
	.align 8
.LC3:
	.string	"\tdata_file_duration = %d\n\tdata_loop_recording = %d\n"
.LC4:
	.string	".ogg"
.LC5:
	.string	".csv"
	.align 8
.LC7:
	.string	"\tFree Disk Space = %lld bytes\n"
	.align 8
.LC8:
	.string	"\tMemory Needed =   %lld bytes\n"
	.align 8
.LC9:
	.string	"ERROR : not enough space in disk for %lld bytes\n"
	.text
	.globl	storage_window_init
	.type	storage_window_init, @function
storage_window_init:
.LFB310:
	.loc 1 68 26
	.cfi_startproc
	endbr64
	pushq	%rbp
	.cfi_def_cfa_offset 16
	.cfi_offset 6, -16
	movq	%rsp, %rbp
	.cfi_def_cfa_register 6
	subq	$32, %rsp
	.loc 1 69 6
	movl	$2, -20(%rbp)
	.loc 1 70 47
	movq	config_struct(%rip), %rax
	movl	56(%rax), %edx
	.loc 1 70 61
	movl	-20(%rbp), %eax
	imull	%edx, %eax
	.loc 1 70 80
	movl	%eax, %eax
	testq	%rax, %rax
	js	.L7
	pxor	%xmm0, %xmm0
	cvtsi2ssq	%rax, %xmm0
	jmp	.L8
.L7:
	movq	%rax, %rdx
	shrq	%rdx
	andl	$1, %eax
	orq	%rax, %rdx
	pxor	%xmm0, %xmm0
	cvtsi2ssq	%rdx, %xmm0
	addss	%xmm0, %xmm0
.L8:
	.loc 1 70 102
	movq	record_struct(%rip), %rax
	.loc 1 70 106
	movq	520(%rax), %rax
	.loc 1 70 82
	pxor	%xmm1, %xmm1
	cvtsi2ssq	%rax, %xmm1
	.loc 1 70 122
	movss	.LC0(%rip), %xmm2
	divss	%xmm2, %xmm1
	.loc 1 70 8
	divss	%xmm1, %xmm0
	movss	%xmm0, -16(%rbp)
	.loc 1 71 82
	movl	$0, %eax
	call	output_get_audio_filepath@PLT
	.loc 1 71 75 discriminator 1
	movq	%rax, %rdi
	call	strlen@PLT
	.loc 1 71 11 discriminator 2
	addl	$744, %eax
	movl	%eax, -12(%rbp)
	.loc 1 73 50
	movq	config_struct(%rip), %rax
	movl	56(%rax), %edx
	.loc 1 73 79
	movq	config_struct(%rip), %rax
	movl	92(%rax), %eax
	.loc 1 73 64
	imull	%eax, %edx
	.loc 1 73 101
	movl	-20(%rbp), %eax
	imull	%edx, %eax
	.loc 1 73 21
	movl	%eax, %eax
	movq	%rax, -8(%rbp)
	.loc 1 76 18
	movq	config_struct(%rip), %rax
	movq	16(%rax), %rax
	.loc 1 76 4
	testq	%rax, %rax
	jne	.L9
.LBB2:
	.loc 1 77 48
	movq	config_struct(%rip), %rax
	movl	88(%rax), %edx
	.loc 1 77 87
	movq	config_struct(%rip), %rax
	movl	92(%rax), %eax
	.loc 1 77 71
	addl	%edx, %eax
	leal	-1(%rax), %ecx
	.loc 1 77 128
	movq	config_struct(%rip), %rax
	movl	92(%rax), %esi
	.loc 1 77 16
	movl	%ecx, %eax
	movl	$0, %edx
	divl	%esi
	movl	%eax, -28(%rbp)
	.loc 1 79 47
	movq	config_struct(%rip), %rax
	movl	100(%rax), %edx
	.loc 1 79 85
	movq	config_struct(%rip), %rax
	movl	104(%rax), %eax
	.loc 1 79 69
	addl	%edx, %eax
	leal	-1(%rax), %ecx
	.loc 1 79 125
	movq	config_struct(%rip), %rax
	movl	104(%rax), %esi
	.loc 1 79 16
	movl	%ecx, %eax
	movl	$0, %edx
	divl	%esi
	movl	%eax, -24(%rbp)
	.loc 1 81 3
	leaq	.LC1(%rip), %rax
	movq	%rax, %rdi
	call	puts@PLT
	.loc 1 82 19
	movq	config_struct(%rip), %rax
	movzbl	96(%rax), %eax
	.loc 1 82 5
	testb	%al, %al
	je	.L10
	.loc 1 83 55
	movq	config_struct(%rip), %rax
	movl	92(%rax), %edx
	.loc 1 83 17
	movq	config_struct(%rip), %rax
	.loc 1 83 77
	imull	-28(%rbp), %edx
	.loc 1 83 40
	movl	%edx, 88(%rax)
	.loc 1 87 18
	movq	config_struct(%rip), %rax
	.loc 1 84 4
	movl	88(%rax), %edx
	.loc 1 86 18
	movq	config_struct(%rip), %rax
	.loc 1 84 4
	movl	92(%rax), %eax
	movl	%eax, %esi
	leaq	.LC2(%rip), %rax
	movq	%rax, %rdi
	movl	$0, %eax
	call	printf@PLT
	jmp	.L11
.L10:
	.loc 1 89 25
	movl	$0, -28(%rbp)
.L11:
	.loc 1 92 19
	movq	config_struct(%rip), %rax
	movzbl	108(%rax), %eax
	.loc 1 92 5
	testb	%al, %al
	je	.L12
	.loc 1 93 54
	movq	config_struct(%rip), %rax
	movl	104(%rax), %edx
	.loc 1 93 17
	movq	config_struct(%rip), %rax
	.loc 1 93 75
	imull	-24(%rbp), %edx
	.loc 1 93 39
	movl	%edx, 100(%rax)
	.loc 1 97 18
	movq	config_struct(%rip), %rax
	.loc 1 94 4
	movl	100(%rax), %edx
	.loc 1 96 18
	movq	config_struct(%rip), %rax
	.loc 1 94 4
	movl	104(%rax), %eax
	movl	%eax, %esi
	leaq	.LC3(%rip), %rax
	movq	%rax, %rdi
	movl	$0, %eax
	call	printf@PLT
	jmp	.L13
.L12:
	.loc 1 99 24
	movl	$0, -24(%rbp)
.L13:
	.loc 1 102 21
	movq	config_struct(%rip), %rax
	movzbl	96(%rax), %eax
	.loc 1 102 5
	testb	%al, %al
	je	.L14
	.loc 1 102 73 discriminator 1
	movl	-28(%rbp), %eax
	movl	%eax, %edi
	call	create_files_storage@PLT
	.loc 1 102 71 discriminator 1
	movq	%rax, 944+record(%rip)
	.loc 1 102 50 discriminator 1
	movq	944+record(%rip), %rax
	.loc 1 102 39 discriminator 1
	testq	%rax, %rax
	je	.L15
.L14:
	.loc 1 103 18
	movq	config_struct(%rip), %rax
	movzbl	108(%rax), %eax
	.loc 1 102 121 discriminator 3
	testb	%al, %al
	je	.L16
	.loc 1 103 68
	movl	-24(%rbp), %eax
	movl	%eax, %edi
	call	create_files_storage@PLT
	.loc 1 103 66 discriminator 1
	movq	%rax, 952+record(%rip)
	.loc 1 103 46 discriminator 1
	movq	952+record(%rip), %rax
	.loc 1 103 35 discriminator 1
	testq	%rax, %rax
	jne	.L16
.L15:
	.loc 1 104 12
	movl	$0, %eax
	jmp	.L17
.L16:
	.loc 1 106 21
	movq	config_struct(%rip), %rax
	movzbl	96(%rax), %eax
	.loc 1 106 5
	testb	%al, %al
	je	.L18
	.loc 1 106 110 discriminator 1
	movq	config_struct(%rip), %rax
	.loc 1 106 44 discriminator 1
	movq	24(%rax), %rcx
	movq	944+record(%rip), %rax
	leaq	.LC4(%rip), %rdx
	movq	%rcx, %rsi
	movq	%rax, %rdi
	call	load_files_from_directory@PLT
	.loc 1 106 39 discriminator 1
	testl	%eax, %eax
	je	.L19
.L18:
	.loc 1 107 18
	movq	config_struct(%rip), %rax
	movzbl	108(%rax), %eax
	.loc 1 106 134 discriminator 3
	testb	%al, %al
	je	.L20
	.loc 1 107 105
	movq	config_struct(%rip), %rax
	.loc 1 107 40
	movq	24(%rax), %rcx
	movq	952+record(%rip), %rax
	leaq	.LC5(%rip), %rdx
	movq	%rcx, %rsi
	movq	%rax, %rdi
	call	load_files_from_directory@PLT
	.loc 1 107 35 discriminator 1
	testl	%eax, %eax
	jne	.L20
.L19:
	.loc 1 108 12
	movl	$0, %eax
	jmp	.L17
.L20:
	.loc 1 111 34
	movq	config_struct(%rip), %rax
	movl	88(%rax), %edx
	.loc 1 111 72
	movq	config_struct(%rip), %rax
	movl	56(%rax), %eax
	.loc 1 111 57
	imull	%eax, %edx
	.loc 1 111 86
	movl	-20(%rbp), %eax
	imull	%edx, %eax
	.loc 1 111 105
	movl	%eax, %eax
	testq	%rax, %rax
	js	.L21
	pxor	%xmm0, %xmm0
	cvtsi2ssq	%rax, %xmm0
	jmp	.L22
.L21:
	movq	%rax, %rdx
	shrq	%rdx
	andl	$1, %eax
	orq	%rax, %rdx
	pxor	%xmm0, %xmm0
	cvtsi2ssq	%rdx, %xmm0
	addss	%xmm0, %xmm0
.L22:
	movaps	%xmm0, %xmm1
	divss	-16(%rbp), %xmm1
	.loc 1 111 144
	movq	config_struct(%rip), %rax
	movzbl	96(%rax), %eax
	movzbl	%al, %eax
	.loc 1 111 130
	pxor	%xmm0, %xmm0
	cvtsi2ssl	%eax, %xmm0
	mulss	%xmm1, %xmm0
	.loc 1 111 17
	comiss	.LC6(%rip), %xmm0
	jnb	.L23
	cvttss2siq	%xmm0, %rax
	movq	%rax, -8(%rbp)
	jmp	.L24
.L23:
	movss	.LC6(%rip), %xmm1
	subss	%xmm1, %xmm0
	cvttss2siq	%xmm0, %rax
	movq	%rax, -8(%rbp)
	movabsq	$-9223372036854775808, %rax
	xorq	%rax, -8(%rbp)
.L24:
	movq	-8(%rbp), %rax
	movq	%rax, -8(%rbp)
.L9:
.LBE2:
	.loc 1 113 34
	movq	config_struct(%rip), %rax
	movl	100(%rax), %edx
	.loc 1 113 71
	movq	config_struct(%rip), %rax
	movl	80(%rax), %eax
	.loc 1 113 56
	imull	%edx, %eax
	.loc 1 113 94
	imull	-12(%rbp), %eax
	movl	%eax, %edx
	.loc 1 113 125
	movq	config_struct(%rip), %rax
	movzbl	108(%rax), %eax
	movzbl	%al, %eax
	.loc 1 113 111
	imull	%edx, %eax
	movl	%eax, %eax
	.loc 1 113 17
	addq	%rax, -8(%rbp)
	.loc 1 114 33
	movq	-8(%rbp), %rdx
	movq	%rdx, %rax
	addq	%rax, %rax
	addq	%rdx, %rax
	salq	$2, %rax
	addq	%rdx, %rax
	salq	$3, %rax
	addq	%rdx, %rax
	.loc 1 114 17
	shrq	$2, %rax
	movabsq	$2951479051793528259, %rdx
	mulq	%rdx
	movq	%rdx, %rax
	shrq	$2, %rax
	movq	%rax, -8(%rbp)
	.loc 1 116 2
	movl	$0, %eax
	call	get_free_disk_space@PLT
	.loc 1 116 2 is_stmt 0 discriminator 1
	movq	%rax, %rsi
	leaq	.LC7(%rip), %rax
	movq	%rax, %rdi
	movl	$0, %eax
	call	printf@PLT
	.loc 1 117 2 is_stmt 1
	movq	-8(%rbp), %rax
	movq	%rax, %rsi
	leaq	.LC8(%rip), %rax
	movq	%rax, %rdi
	movl	$0, %eax
	call	printf@PLT
	.loc 1 119 5
	movl	$0, %eax
	call	get_free_disk_space@PLT
	.loc 1 119 4 discriminator 1
	cmpq	-8(%rbp), %rax
	jnb	.L25
	.loc 1 120 3
	movq	stderr(%rip), %rax
	movq	-8(%rbp), %rdx
	leaq	.LC9(%rip), %rcx
	movq	%rcx, %rsi
	movq	%rax, %rdi
	movl	$0, %eax
	call	fprintf@PLT
	.loc 1 121 10
	movl	$0, %eax
	jmp	.L17
.L25:
	.loc 1 124 9
	movl	$1, %eax
.L17:
	.loc 1 125 1
	leave
	.cfi_def_cfa 7, 8
	ret
	.cfi_endproc
.LFE310:
	.size	storage_window_init, .-storage_window_init
	.section	.rodata
	.align 8
.LC10:
	.string	"ERROR : could not create an output_file (record.c : 173)"
	.align 8
.LC12:
	.string	"Error initializing the encoder\n\n"
.LC13:
	.string	"encoder_example.c"
.LC14:
	.string	"ENCODER"
	.text
	.globl	record_start
	.type	record_start, @function
record_start:
.LFB311:
	.loc 1 137 19
	.cfi_startproc
	endbr64
	pushq	%rbp
	.cfi_def_cfa_offset 16
	.cfi_offset 6, -16
	movq	%rsp, %rbp
	.cfi_def_cfa_register 6
	subq	$176, %rsp
	.loc 1 137 19
	movq	%fs:40, %rax
	movq	%rax, -8(%rbp)
	xorl	%eax, %eax
	.loc 1 139 16
	movl	$0, 920+record(%rip)
	.loc 1 142 25
	movq	$0, 928+record(%rip)
	.loc 1 145 22
	movq	$0, 936+record(%rip)
	.loc 1 148 18
	movq	config_struct(%rip), %rax
	movzbl	96(%rax), %eax
	.loc 1 148 4
	testb	%al, %al
	je	.L27
	.loc 1 149 3
	movl	$0, %eax
	call	create_output_file
	.loc 1 150 14
	movq	record(%rip), %rax
	.loc 1 150 6
	testq	%rax, %rax
	jne	.L27
	.loc 1 151 5
	movq	stderr(%rip), %rax
	movq	%rax, %rcx
	movl	$56, %edx
	movl	$1, %esi
	leaq	.LC10(%rip), %rax
	movq	%rax, %rdi
	call	fwrite@PLT
	.loc 1 152 12
	movl	$0, %eax
	jmp	.L28
.L27:
	.loc 1 156 5
	leaq	496+record(%rip), %rax
	movq	%rax, %rdi
	call	vorbis_info_init@PLT
	.loc 1 157 82
	movq	config_struct(%rip), %rax
	movl	56(%rax), %eax
	.loc 1 157 9
	movl	%eax, %edx
	.loc 1 157 57
	movq	config_struct(%rip), %rax
	movl	60(%rax), %eax
	.loc 1 157 9
	movl	%eax, %ecx
	movl	.LC11(%rip), %eax
	movd	%eax, %xmm0
	movq	%rcx, %rsi
	leaq	496+record(%rip), %rax
	movq	%rax, %rdi
	call	vorbis_encode_init_vbr@PLT
	.loc 1 157 8 discriminator 1
	testl	%eax, %eax
	je	.L29
	.loc 1 158 9
	movq	stderr(%rip), %rax
	movq	%rax, %rcx
	movl	$32, %edx
	movl	$1, %esi
	leaq	.LC12(%rip), %rax
	movq	%rax, %rdi
	call	fwrite@PLT
	.loc 1 159 9
	movq	record(%rip), %rax
	movq	%rax, %rdi
	call	fclose@PLT
	.loc 1 160 16
	movl	$0, %eax
	jmp	.L28
.L29:
	.loc 1 164 5
	leaq	552+record(%rip), %rax
	movq	%rax, %rdi
	call	vorbis_comment_init@PLT
	.loc 1 165 5
	leaq	.LC13(%rip), %rax
	movq	%rax, %rdx
	leaq	.LC14(%rip), %rax
	movq	%rax, %rsi
	leaq	552+record(%rip), %rax
	movq	%rax, %rdi
	call	vorbis_comment_add_tag@PLT
	.loc 1 166 5
	leaq	496+record(%rip), %rax
	movq	%rax, %rsi
	leaq	584+record(%rip), %rax
	movq	%rax, %rdi
	call	vorbis_analysis_init@PLT
	.loc 1 167 5
	leaq	728+record(%rip), %rax
	movq	%rax, %rsi
	leaq	584+record(%rip), %rax
	movq	%rax, %rdi
	call	vorbis_block_init@PLT
	.loc 1 170 11
	movl	$0, %edi
	call	time@PLT
	.loc 1 170 5 discriminator 1
	movl	%eax, %edi
	call	srand@PLT
	.loc 1 171 5
	call	rand@PLT
	.loc 1 171 5 is_stmt 0 discriminator 1
	movl	%eax, %esi
	leaq	8+record(%rip), %rax
	movq	%rax, %rdi
	call	ogg_stream_init@PLT
	.loc 1 173 18 is_stmt 1
	movq	config_struct(%rip), %rax
	movzbl	96(%rax), %eax
	.loc 1 173 4
	testb	%al, %al
	je	.L30
.LBB3:
	.loc 1 176 3
	leaq	-64(%rbp), %rcx
	leaq	-112(%rbp), %rdx
	leaq	-160(%rbp), %rax
	movq	%rcx, %r8
	movq	%rdx, %rcx
	movq	%rax, %rdx
	leaq	552+record(%rip), %rax
	movq	%rax, %rsi
	leaq	584+record(%rip), %rax
	movq	%rax, %rdi
	call	vorbis_analysis_headerout@PLT
	.loc 1 177 3
	leaq	-160(%rbp), %rax
	movq	%rax, %rsi
	leaq	8+record(%rip), %rax
	movq	%rax, %rdi
	call	ogg_stream_packetin@PLT
	.loc 1 178 3
	leaq	-112(%rbp), %rax
	movq	%rax, %rsi
	leaq	8+record(%rip), %rax
	movq	%rax, %rdi
	call	ogg_stream_packetin@PLT
	.loc 1 179 3
	leaq	-64(%rbp), %rax
	movq	%rax, %rsi
	leaq	8+record(%rip), %rax
	movq	%rax, %rdi
	call	ogg_stream_packetin@PLT
	.loc 1 181 9
	jmp	.L31
.L34:
.LBB4:
	.loc 1 182 17
	leaq	416+record(%rip), %rax
	movq	%rax, %rsi
	leaq	8+record(%rip), %rax
	movq	%rax, %rdi
	call	ogg_stream_flush@PLT
	movl	%eax, -164(%rbp)
	.loc 1 183 7
	cmpl	$0, -164(%rbp)
	je	.L37
	.loc 1 184 4
	movq	record(%rip), %rdx
	.loc 1 184 41
	movq	424+record(%rip), %rax
	.loc 1 184 4
	movq	%rax, %rsi
	.loc 1 184 20
	movq	416+record(%rip), %rax
	.loc 1 184 4
	movq	%rdx, %rcx
	movq	%rsi, %rdx
	movl	$1, %esi
	movq	%rax, %rdi
	call	fwrite@PLT
	.loc 1 185 4
	movq	record(%rip), %rdx
	.loc 1 185 39
	movq	440+record(%rip), %rax
	.loc 1 185 4
	movq	%rax, %rsi
	.loc 1 185 20
	movq	432+record(%rip), %rax
	.loc 1 185 4
	movq	%rdx, %rcx
	movq	%rsi, %rdx
	movl	$1, %esi
	movq	%rax, %rdi
	call	fwrite@PLT
.L31:
.LBE4:
	.loc 1 181 17
	movl	920+record(%rip), %eax
	.loc 1 181 10
	testl	%eax, %eax
	je	.L34
	jmp	.L30
.L37:
.LBB5:
	.loc 1 183 21
	nop
.L30:
.LBE5:
.LBE3:
	.loc 1 188 8
	movzbl	start(%rip), %eax
	xorl	$1, %eax
	.loc 1 188 7
	testb	%al, %al
	je	.L35
	.loc 1 189 9
	movb	$1, start(%rip)
	.loc 1 190 7
	movl	$0, %eax
	call	storage_window_init
	.loc 1 190 5 discriminator 1
	testl	%eax, %eax
	jne	.L35
	.loc 1 191 11
	movl	$0, %eax
	jmp	.L28
.L35:
	.loc 1 193 22
	movl	$0, %edi
	call	time@PLT
	.loc 1 193 20 discriminator 1
	movq	%rax, 960+record(%rip)
	.loc 1 194 22
	movl	$0, 968+record(%rip)
	.loc 1 195 12
	movl	$1, %eax
.L28:
	.loc 1 196 1
	movq	-8(%rbp), %rdx
	subq	%fs:40, %rdx
	je	.L36
	call	__stack_chk_fail@PLT
.L36:
	leave
	.cfi_def_cfa 7, 8
	ret
	.cfi_endproc
.LFE311:
	.size	record_start, .-record_start
	.globl	record_stop
	.type	record_stop, @function
record_stop:
.LFB312:
	.loc 1 208 19
	.cfi_startproc
	endbr64
	pushq	%rbp
	.cfi_def_cfa_offset 16
	.cfi_offset 6, -16
	movq	%rsp, %rbp
	.cfi_def_cfa_register 6
	.loc 1 209 2
	leaq	8+record(%rip), %rax
	movq	%rax, %rdi
	call	ogg_stream_clear@PLT
	.loc 1 210 2
	leaq	728+record(%rip), %rax
	movq	%rax, %rdi
	call	vorbis_block_clear@PLT
	.loc 1 211 2
	leaq	584+record(%rip), %rax
	movq	%rax, %rdi
	call	vorbis_dsp_clear@PLT
	.loc 1 212 2
	leaq	552+record(%rip), %rax
	movq	%rax, %rdi
	call	vorbis_comment_clear@PLT
	.loc 1 213 2
	leaq	496+record(%rip), %rax
	movq	%rax, %rdi
	call	vorbis_info_clear@PLT
	.loc 1 214 12
	movq	record(%rip), %rax
	.loc 1 214 5
	testq	%rax, %rax
	je	.L40
	.loc 1 215 3
	movq	record(%rip), %rax
	movq	%rax, %rdi
	call	fclose@PLT
	.loc 1 216 17
	movq	$0, record(%rip)
.L40:
	.loc 1 218 1
	nop
	popq	%rbp
	.cfi_def_cfa 7, 8
	ret
	.cfi_endproc
.LFE312:
	.size	record_stop, .-record_stop
	.section	.rodata
.LC15:
	.string	"src/record.c"
	.align 8
.LC16:
	.string	"frames_read <= config_struct->block_size"
	.text
	.globl	record_append_samples
	.type	record_append_samples, @function
record_append_samples:
.LFB313:
	.loc 1 230 67
	.cfi_startproc
	endbr64
	pushq	%rbp
	.cfi_def_cfa_offset 16
	.cfi_offset 6, -16
	movq	%rsp, %rbp
	.cfi_def_cfa_register 6
	subq	$32, %rsp
	movq	%rdi, -24(%rbp)
	movq	%rsi, -32(%rbp)
	.loc 1 231 19
	movq	config_struct(%rip), %rax
	movzbl	96(%rax), %eax
	.loc 1 231 5
	xorl	$1, %eax
	.loc 1 231 4
	testb	%al, %al
	je	.L42
	.loc 1 231 45 discriminator 1
	movl	$1, %eax
	.loc 1 231 45 is_stmt 0
	jmp	.L43
.L42:
	.loc 1 232 29 is_stmt 1
	movq	config_struct(%rip), %rax
	movl	68(%rax), %eax
	movl	%eax, %eax
	.loc 1 232 33
	cmpq	-32(%rbp), %rax
	jnb	.L44
	.loc 1 232 10 discriminator 1
	leaq	__PRETTY_FUNCTION__.0(%rip), %rax
	movq	%rax, %rcx
	movl	$232, %edx
	leaq	.LC15(%rip), %rax
	movq	%rax, %rsi
	leaq	.LC16(%rip), %rax
	movq	%rax, %rdi
	call	__assert_fail@PLT
.L44:
	.loc 1 236 4
	cmpq	$0, -32(%rbp)
	jne	.L45
	.loc 1 238 3
	movl	$0, %esi
	leaq	584+record(%rip), %rax
	movq	%rax, %rdi
	call	vorbis_analysis_wrote@PLT
	jmp	.L49
.L45:
.LBB6:
	.loc 1 242 65
	movq	config_struct(%rip), %rax
	movl	68(%rax), %eax
	.loc 1 242 18
	movl	%eax, %esi
	leaq	584+record(%rip), %rax
	movq	%rax, %rdi
	call	vorbis_analysis_buffer@PLT
	movq	%rax, -8(%rbp)
.LBB7:
	.loc 1 244 11
	movl	$0, -16(%rbp)
	.loc 1 244 3
	jmp	.L47
.L48:
	.loc 1 245 4
	movq	-32(%rbp), %rax
	leaq	0(,%rax,4), %rdx
	.loc 1 245 43
	movl	-16(%rbp), %eax
	cltq
	imulq	-32(%rbp), %rax
	.loc 1 245 37
	leaq	0(,%rax,4), %rcx
	movq	-24(%rbp), %rax
	addq	%rax, %rcx
	.loc 1 245 17
	movl	-16(%rbp), %eax
	cltq
	leaq	0(,%rax,8), %rsi
	movq	-8(%rbp), %rax
	addq	%rsi, %rax
	.loc 1 245 4
	movq	(%rax), %rax
	movq	%rcx, %rsi
	movq	%rax, %rdi
	call	memcpy@PLT
	.loc 1 244 51 discriminator 3
	addl	$1, -16(%rbp)
.L47:
	.loc 1 244 37 discriminator 1
	movq	config_struct(%rip), %rax
	movl	60(%rax), %eax
	.loc 1 244 22 discriminator 1
	movl	-16(%rbp), %edx
	cmpl	%eax, %edx
	jb	.L48
.LBE7:
	.loc 1 254 3
	movq	-32(%rbp), %rax
	movl	%eax, %esi
	leaq	584+record(%rip), %rax
	movq	%rax, %rdi
	call	vorbis_analysis_wrote@PLT
.LBE6:
	.loc 1 257 7
	jmp	.L49
.L57:
	.loc 1 259 3
	movl	$0, %esi
	leaq	728+record(%rip), %rax
	movq	%rax, %rdi
	call	vorbis_analysis@PLT
	.loc 1 260 3
	leaq	728+record(%rip), %rax
	movq	%rax, %rdi
	call	vorbis_bitrate_addblock@PLT
	.loc 1 262 8
	jmp	.L55
.L56:
	.loc 1 264 10
	movq	928+record(%rip), %rdx
	.loc 1 264 36
	movq	456+record(%rip), %rax
	.loc 1 264 24
	addq	%rdx, %rax
	movq	%rax, 928+record(%rip)
	.loc 1 265 4
	leaq	448+record(%rip), %rax
	movq	%rax, %rsi
	leaq	8+record(%rip), %rax
	movq	%rax, %rdi
	call	ogg_stream_packetin@PLT
	.loc 1 267 9
	jmp	.L53
.L54:
.LBB8:
	.loc 1 268 16
	leaq	416+record(%rip), %rax
	movq	%rax, %rsi
	leaq	8+record(%rip), %rax
	movq	%rax, %rdi
	call	ogg_stream_pageout@PLT
	movl	%eax, -12(%rbp)
	.loc 1 269 7
	cmpl	$0, -12(%rbp)
	jne	.L52
	.loc 1 269 18
	jmp	.L55
.L52:
	.loc 1 270 5
	movq	record(%rip), %rdx
	.loc 1 270 40
	movq	424+record(%rip), %rax
	.loc 1 270 5
	movq	%rax, %rsi
	.loc 1 270 21
	movq	416+record(%rip), %rax
	.loc 1 270 5
	movq	%rdx, %rcx
	movq	%rsi, %rdx
	movl	$1, %esi
	movq	%rax, %rdi
	call	fwrite@PLT
	.loc 1 271 5
	movq	record(%rip), %rdx
	.loc 1 271 38
	movq	440+record(%rip), %rax
	.loc 1 271 5
	movq	%rax, %rsi
	.loc 1 271 21
	movq	432+record(%rip), %rax
	.loc 1 271 5
	movq	%rdx, %rcx
	movq	%rsi, %rdx
	movl	$1, %esi
	movq	%rax, %rdi
	call	fwrite@PLT
	.loc 1 273 8
	leaq	416+record(%rip), %rax
	movq	%rax, %rdi
	call	ogg_page_eos@PLT
	.loc 1 273 7 discriminator 1
	testl	%eax, %eax
	je	.L53
	.loc 1 273 43 discriminator 1
	movl	$1, 920+record(%rip)
.L53:
.LBE8:
	.loc 1 267 17
	movl	920+record(%rip), %eax
	.loc 1 267 10
	testl	%eax, %eax
	je	.L54
.L55:
	.loc 1 262 9
	leaq	448+record(%rip), %rax
	movq	%rax, %rsi
	leaq	584+record(%rip), %rax
	movq	%rax, %rdi
	call	vorbis_bitrate_flushpacket@PLT
	.loc 1 262 9 is_stmt 0 discriminator 1
	testl	%eax, %eax
	jne	.L56
.L49:
	.loc 1 257 8 is_stmt 1
	leaq	728+record(%rip), %rax
	movq	%rax, %rsi
	leaq	584+record(%rip), %rax
	movq	%rax, %rdi
	call	vorbis_analysis_blockout@PLT
	.loc 1 257 55 discriminator 1
	cmpl	$1, %eax
	je	.L57
	.loc 1 278 8
	movq	936+record(%rip), %rax
	movq	%rax, %rdx
	.loc 1 278 22
	movq	-32(%rbp), %rax
	addq	%rdx, %rax
	movq	%rax, 936+record(%rip)
	.loc 1 280 9
	movl	$1, %eax
.L43:
	.loc 1 281 1
	leave
	.cfi_def_cfa 7, 8
	ret
	.cfi_endproc
.LFE313:
	.size	record_append_samples, .-record_append_samples
	.section	.rodata
	.align 16
	.type	__PRETTY_FUNCTION__.0, @object
	.size	__PRETTY_FUNCTION__.0, 22
__PRETTY_FUNCTION__.0:
	.string	"record_append_samples"
	.align 4
.LC0:
	.long	1090519040
	.align 4
.LC6:
	.long	1593835520
	.align 4
.LC11:
	.long	1063675494
	.text
.Letext0:
	.file 2 "/usr/lib/gcc/x86_64-linux-gnu/13/include/stddef.h"
	.file 3 "/usr/include/x86_64-linux-gnu/bits/types.h"
	.file 4 "/usr/include/x86_64-linux-gnu/bits/types/struct_FILE.h"
	.file 5 "/usr/include/x86_64-linux-gnu/bits/types/FILE.h"
	.file 6 "/usr/include/x86_64-linux-gnu/bits/types/time_t.h"
	.file 7 "/usr/include/x86_64-linux-gnu/bits/stdint-intn.h"
	.file 8 "/usr/local/include/ogg/config_types.h"
	.file 9 "/usr/local/include/ogg/ogg.h"
	.file 10 "/usr/local/include/vorbis/codec.h"
	.file 11 "src/config.h"
	.file 12 "/usr/include/stdio.h"
	.file 13 "src/storage.h"
	.file 14 "src/record.h"
	.file 15 "/usr/include/string.h"
	.file 16 "/usr/include/assert.h"
	.file 17 "/usr/include/stdlib.h"
	.file 18 "/usr/include/time.h"
	.file 19 "/usr/local/include/vorbis/vorbisenc.h"
	.file 20 "src/in_out.h"
	.section	.note.GNU-stack,"",@progbits
	.section	.note.gnu.property,"a"
	.align 8
	.long	1f - 0f
	.long	4f - 1f
	.long	5
0:
	.string	"GNU"
1:
	.align 8
	.long	0xc0000002
	.long	3f - 2f
2:
	.long	0x3
3:
	.align 8
4:
